ARM GAS  C:\Users\NHANPH~1\AppData\Local\Temp\cceiGVOf.s 			page 1


   1              		.syntax unified
   2              		.cpu cortex-m3
   3              		.fpu softvfp
   4              		.eabi_attribute 20, 1
   5              		.eabi_attribute 21, 1
   6              		.eabi_attribute 23, 3
   7              		.eabi_attribute 24, 1
   8              		.eabi_attribute 25, 1
   9              		.eabi_attribute 26, 1
  10              		.eabi_attribute 30, 1
  11              		.eabi_attribute 34, 1
  12              		.eabi_attribute 18, 4
  13              		.thumb
  14              		.file	"Ambient.c"
  15              		.text
  16              	.Ltext0:
  17              		.cfi_sections	.debug_frame
  18              		.global	__aeabi_ddiv
  19              		.global	__aeabi_dcmpgt
  20              		.global	__aeabi_dcmple
  21              		.global	__aeabi_dmul
  22              		.global	__aeabi_dsub
  23              		.section	.text.getLux,"ax",%progbits
  24              		.align	2
  25              		.global	getLux
  26              		.thumb
  27              		.thumb_func
  28              		.type	getLux, %function
  29              	getLux:
  30              	.LFB0:
  31              		.file 1 "ZumoLibrary\\Ambient.c"
   1:ZumoLibrary/Ambient.c **** /**
   2:ZumoLibrary/Ambient.c ****  * @file Ambient.c
   3:ZumoLibrary/Ambient.c ****  * @brief basic methods of operating ambient light sensor. For more details, please refer to Ambien
   4:ZumoLibrary/Ambient.c ****  * @details part number: APDS-9301
   5:ZumoLibrary/Ambient.c **** */
   6:ZumoLibrary/Ambient.c **** #include "Ambient.h"
   7:ZumoLibrary/Ambient.c **** 
   8:ZumoLibrary/Ambient.c **** 
   9:ZumoLibrary/Ambient.c **** /**
  10:ZumoLibrary/Ambient.c **** * @brief    Get lux from raw value
  11:ZumoLibrary/Ambient.c **** * @details  get lux using values of Channel 0 and Channel 1
  12:ZumoLibrary/Ambient.c **** * @param    double Channel 0
  13:ZumoLibrary/Ambient.c **** * @param    double Channel 1
  14:ZumoLibrary/Ambient.c **** * @return   double return calculated value
  15:ZumoLibrary/Ambient.c **** */
  16:ZumoLibrary/Ambient.c **** double getLux(double CH0, double CH1)
  17:ZumoLibrary/Ambient.c **** {
  32              		.loc 1 17 0
  33              		.cfi_startproc
  34              		@ args = 0, pretend = 0, frame = 0
  35              		@ frame_needed = 0, uses_anonymous_args = 0
  36              	.LVL0:
  37 0000 2DE9F843 		push	{r3, r4, r5, r6, r7, r8, r9, lr}
  38              		.cfi_def_cfa_offset 32
  39              		.cfi_offset 3, -32
  40              		.cfi_offset 4, -28
ARM GAS  C:\Users\NHANPH~1\AppData\Local\Temp\cceiGVOf.s 			page 2


  41              		.cfi_offset 5, -24
  42              		.cfi_offset 6, -20
  43              		.cfi_offset 7, -16
  44              		.cfi_offset 8, -12
  45              		.cfi_offset 9, -8
  46              		.cfi_offset 14, -4
  47 0004 0646     		mov	r6, r0
  48 0006 0F46     		mov	r7, r1
  49 0008 9046     		mov	r8, r2
  50 000a 9946     		mov	r9, r3
  51              	.LVL1:
  18:ZumoLibrary/Ambient.c ****     double result = 0;
  19:ZumoLibrary/Ambient.c ****     double ChannelRatio = (double)CH1/CH0;
  52              		.loc 1 19 0
  53 000c 1046     		mov	r0, r2
  54              	.LVL2:
  55 000e 1946     		mov	r1, r3
  56 0010 3246     		mov	r2, r6
  57              	.LVL3:
  58 0012 3B46     		mov	r3, r7
  59 0014 FFF7FEFF 		bl	__aeabi_ddiv
  60              	.LVL4:
  61 0018 0446     		mov	r4, r0
  62 001a 0D46     		mov	r5, r1
  63              	.LVL5:
  20:ZumoLibrary/Ambient.c ****     
  21:ZumoLibrary/Ambient.c ****     if((0<ChannelRatio) && (ChannelRatio <= 0.5))
  64              		.loc 1 21 0
  65 001c 0022     		movs	r2, #0
  66 001e 0023     		movs	r3, #0
  67 0020 FFF7FEFF 		bl	__aeabi_dcmpgt
  68              	.LVL6:
  69 0024 68B3     		cbz	r0, .L2
  70              		.loc 1 21 0 is_stmt 0 discriminator 1
  71 0026 2046     		mov	r0, r4
  72 0028 2946     		mov	r1, r5
  73 002a 0022     		movs	r2, #0
  74 002c 6C4B     		ldr	r3, .L27+96
  75 002e FFF7FEFF 		bl	__aeabi_dcmple
  76              	.LVL7:
  77 0032 30B3     		cbz	r0, .L2
  22:ZumoLibrary/Ambient.c ****         result = (0.0304 * CH0) - (0.062 * CH0 * pow(ChannelRatio, 1.4));
  78              		.loc 1 22 0 is_stmt 1
  79 0034 3046     		mov	r0, r6
  80 0036 3946     		mov	r1, r7
  81 0038 51A3     		adr	r3, .L27
  82 003a D3E90023 		ldrd	r2, [r3]
  83 003e FFF7FEFF 		bl	__aeabi_dmul
  84              	.LVL8:
  85 0042 8046     		mov	r8, r0
  86 0044 8946     		mov	r9, r1
  87 0046 3046     		mov	r0, r6
  88 0048 3946     		mov	r1, r7
  89 004a 4FA3     		adr	r3, .L27+8
  90 004c D3E90023 		ldrd	r2, [r3]
  91 0050 FFF7FEFF 		bl	__aeabi_dmul
  92              	.LVL9:
ARM GAS  C:\Users\NHANPH~1\AppData\Local\Temp\cceiGVOf.s 			page 3


  93 0054 0646     		mov	r6, r0
  94 0056 0F46     		mov	r7, r1
  95 0058 2046     		mov	r0, r4
  96 005a 2946     		mov	r1, r5
  97 005c 4CA3     		adr	r3, .L27+16
  98 005e D3E90023 		ldrd	r2, [r3]
  99 0062 FFF7FEFF 		bl	pow
 100              	.LVL10:
 101 0066 0246     		mov	r2, r0
 102 0068 0B46     		mov	r3, r1
 103 006a 3046     		mov	r0, r6
 104 006c 3946     		mov	r1, r7
 105 006e FFF7FEFF 		bl	__aeabi_dmul
 106              	.LVL11:
 107 0072 0246     		mov	r2, r0
 108 0074 0B46     		mov	r3, r1
 109 0076 4046     		mov	r0, r8
 110 0078 4946     		mov	r1, r9
 111 007a FFF7FEFF 		bl	__aeabi_dsub
 112              	.LVL12:
 113 007e BDE8F883 		pop	{r3, r4, r5, r6, r7, r8, r9, pc}
 114              	.LVL13:
 115              	.L2:
  23:ZumoLibrary/Ambient.c ****     else if((0.5<ChannelRatio)&&(ChannelRatio <= 0.61))
 116              		.loc 1 23 0
 117 0082 2046     		mov	r0, r4
 118 0084 2946     		mov	r1, r5
 119 0086 0022     		movs	r2, #0
 120 0088 554B     		ldr	r3, .L27+96
 121 008a FFF7FEFF 		bl	__aeabi_dcmpgt
 122              	.LVL14:
 123 008e F8B1     		cbz	r0, .L6
 124              		.loc 1 23 0 is_stmt 0 discriminator 1
 125 0090 2046     		mov	r0, r4
 126 0092 2946     		mov	r1, r5
 127 0094 40A3     		adr	r3, .L27+24
 128 0096 D3E90023 		ldrd	r2, [r3]
 129 009a FFF7FEFF 		bl	__aeabi_dcmple
 130              	.LVL15:
 131 009e B8B1     		cbz	r0, .L6
  24:ZumoLibrary/Ambient.c ****         result = (0.0224 * CH0) - (0.031 * CH1);
 132              		.loc 1 24 0 is_stmt 1
 133 00a0 3046     		mov	r0, r6
 134 00a2 3946     		mov	r1, r7
 135 00a4 3EA3     		adr	r3, .L27+32
 136 00a6 D3E90023 		ldrd	r2, [r3]
 137 00aa FFF7FEFF 		bl	__aeabi_dmul
 138              	.LVL16:
 139 00ae 0446     		mov	r4, r0
 140              	.LVL17:
 141 00b0 0D46     		mov	r5, r1
 142 00b2 4046     		mov	r0, r8
 143 00b4 4946     		mov	r1, r9
 144 00b6 3CA3     		adr	r3, .L27+40
 145 00b8 D3E90023 		ldrd	r2, [r3]
 146 00bc FFF7FEFF 		bl	__aeabi_dmul
 147              	.LVL18:
ARM GAS  C:\Users\NHANPH~1\AppData\Local\Temp\cceiGVOf.s 			page 4


 148 00c0 0246     		mov	r2, r0
 149 00c2 0B46     		mov	r3, r1
 150 00c4 2046     		mov	r0, r4
 151 00c6 2946     		mov	r1, r5
 152 00c8 FFF7FEFF 		bl	__aeabi_dsub
 153              	.LVL19:
 154 00cc BDE8F883 		pop	{r3, r4, r5, r6, r7, r8, r9, pc}
 155              	.LVL20:
 156              	.L6:
  25:ZumoLibrary/Ambient.c ****     else if((0.61<ChannelRatio)&&(ChannelRatio <= 0.80))
 157              		.loc 1 25 0
 158 00d0 2046     		mov	r0, r4
 159 00d2 2946     		mov	r1, r5
 160 00d4 30A3     		adr	r3, .L27+24
 161 00d6 D3E90023 		ldrd	r2, [r3]
 162 00da FFF7FEFF 		bl	__aeabi_dcmpgt
 163              	.LVL21:
 164 00de F8B1     		cbz	r0, .L9
 165              		.loc 1 25 0 is_stmt 0 discriminator 1
 166 00e0 2046     		mov	r0, r4
 167 00e2 2946     		mov	r1, r5
 168 00e4 32A3     		adr	r3, .L27+48
 169 00e6 D3E90023 		ldrd	r2, [r3]
 170 00ea FFF7FEFF 		bl	__aeabi_dcmple
 171              	.LVL22:
 172 00ee B8B1     		cbz	r0, .L9
  26:ZumoLibrary/Ambient.c ****         result = (0.0128 * CH0) - (0.0153 * CH1);
 173              		.loc 1 26 0 is_stmt 1
 174 00f0 3046     		mov	r0, r6
 175 00f2 3946     		mov	r1, r7
 176 00f4 30A3     		adr	r3, .L27+56
 177 00f6 D3E90023 		ldrd	r2, [r3]
 178 00fa FFF7FEFF 		bl	__aeabi_dmul
 179              	.LVL23:
 180 00fe 0446     		mov	r4, r0
 181              	.LVL24:
 182 0100 0D46     		mov	r5, r1
 183 0102 4046     		mov	r0, r8
 184 0104 4946     		mov	r1, r9
 185 0106 2EA3     		adr	r3, .L27+64
 186 0108 D3E90023 		ldrd	r2, [r3]
 187 010c FFF7FEFF 		bl	__aeabi_dmul
 188              	.LVL25:
 189 0110 0246     		mov	r2, r0
 190 0112 0B46     		mov	r3, r1
 191 0114 2046     		mov	r0, r4
 192 0116 2946     		mov	r1, r5
 193 0118 FFF7FEFF 		bl	__aeabi_dsub
 194              	.LVL26:
 195 011c BDE8F883 		pop	{r3, r4, r5, r6, r7, r8, r9, pc}
 196              	.LVL27:
 197              	.L9:
  27:ZumoLibrary/Ambient.c ****     else if((0.80<ChannelRatio)&&(ChannelRatio <= 1.30))
 198              		.loc 1 27 0
 199 0120 2046     		mov	r0, r4
 200 0122 2946     		mov	r1, r5
 201 0124 22A3     		adr	r3, .L27+48
ARM GAS  C:\Users\NHANPH~1\AppData\Local\Temp\cceiGVOf.s 			page 5


 202 0126 D3E90023 		ldrd	r2, [r3]
 203 012a FFF7FEFF 		bl	__aeabi_dcmpgt
 204              	.LVL28:
 205 012e F8B1     		cbz	r0, .L24
 206              		.loc 1 27 0 is_stmt 0 discriminator 1
 207 0130 2046     		mov	r0, r4
 208 0132 2946     		mov	r1, r5
 209 0134 24A3     		adr	r3, .L27+72
 210 0136 D3E90023 		ldrd	r2, [r3]
 211 013a FFF7FEFF 		bl	__aeabi_dcmple
 212              	.LVL29:
 213 013e D8B1     		cbz	r0, .L25
  28:ZumoLibrary/Ambient.c ****         result = (0.00146 * CH0) - (0.00112 * CH1);
 214              		.loc 1 28 0 is_stmt 1
 215 0140 3046     		mov	r0, r6
 216 0142 3946     		mov	r1, r7
 217 0144 22A3     		adr	r3, .L27+80
 218 0146 D3E90023 		ldrd	r2, [r3]
 219 014a FFF7FEFF 		bl	__aeabi_dmul
 220              	.LVL30:
 221 014e 0446     		mov	r4, r0
 222              	.LVL31:
 223 0150 0D46     		mov	r5, r1
 224 0152 4046     		mov	r0, r8
 225 0154 4946     		mov	r1, r9
 226 0156 20A3     		adr	r3, .L27+88
 227 0158 D3E90023 		ldrd	r2, [r3]
 228 015c FFF7FEFF 		bl	__aeabi_dmul
 229              	.LVL32:
 230 0160 0246     		mov	r2, r0
 231 0162 0B46     		mov	r3, r1
 232 0164 2046     		mov	r0, r4
 233 0166 2946     		mov	r1, r5
 234 0168 FFF7FEFF 		bl	__aeabi_dsub
 235              	.LVL33:
 236 016c BDE8F883 		pop	{r3, r4, r5, r6, r7, r8, r9, pc}
 237              	.LVL34:
 238              	.L24:
  29:ZumoLibrary/Ambient.c ****     else 
  30:ZumoLibrary/Ambient.c ****         result = 0;
 239              		.loc 1 30 0
 240 0170 0020     		movs	r0, #0
 241 0172 0021     		movs	r1, #0
 242 0174 BDE8F883 		pop	{r3, r4, r5, r6, r7, r8, r9, pc}
 243              	.LVL35:
 244              	.L25:
 245 0178 0020     		movs	r0, #0
 246 017a 0021     		movs	r1, #0
 247              	.LVL36:
  31:ZumoLibrary/Ambient.c **** 
  32:ZumoLibrary/Ambient.c ****     return result;
  33:ZumoLibrary/Ambient.c **** }
 248              		.loc 1 33 0
 249 017c BDE8F883 		pop	{r3, r4, r5, r6, r7, r8, r9, pc}
 250              	.LVL37:
 251              	.L28:
 252              		.align	3
ARM GAS  C:\Users\NHANPH~1\AppData\Local\Temp\cceiGVOf.s 			page 6


 253              	.L27:
 254 0180 C58F3177 		.word	1999736773
 255 0184 2D219F3F 		.word	1067393325
 256 0188 5839B4C8 		.word	-927712936
 257 018c 76BEAF3F 		.word	1068482166
 258 0190 66666666 		.word	1717986918
 259 0194 6666F63F 		.word	1073112678
 260 0198 85EB51B8 		.word	-1202590843
 261 019c 1E85E33F 		.word	1071875358
 262 01a0 C7BAB88D 		.word	-1917273401
 263 01a4 06F0963F 		.word	1066856454
 264 01a8 5839B4C8 		.word	-927712936
 265 01ac 76BE9F3F 		.word	1067433590
 266 01b0 9A999999 		.word	-1717986918
 267 01b4 9999E93F 		.word	1072273817
 268 01b8 2D431CEB 		.word	-350469331
 269 01bc E2368A3F 		.word	1066022626
 270 01c0 4BC8073D 		.word	1023920203
 271 01c4 9B558F3F 		.word	1066358171
 272 01c8 CDCCCCCC 		.word	-858993459
 273 01cc CCCCF43F 		.word	1073007820
 274 01d0 B2632310 		.word	270754738
 275 01d4 AFEB573F 		.word	1062726575
 276 01d8 D2FBC6D7 		.word	-674825262
 277 01dc 9E59523F 		.word	1062361502
 278 01e0 0000E03F 		.word	1071644672
 279              		.cfi_endproc
 280              	.LFE0:
 281              		.size	getLux, .-getLux
 282 01e4 AFF30080 		.text
 283              	.Letext0:
 284              		.file 2 "c:\\program files (x86)\\cypress\\psoc creator\\4.0\\psoc creator\\import\\gnu\\arm\\4.9.