ARM GAS  C:\Users\NHANPH~1\AppData\Local\Temp\cchDbn02.s 			page 1


   1              		.syntax unified
   2              		.cpu cortex-m3
   3              		.fpu softvfp
   4              		.eabi_attribute 20, 1
   5              		.eabi_attribute 21, 1
   6              		.eabi_attribute 23, 3
   7              		.eabi_attribute 24, 1
   8              		.eabi_attribute 25, 1
   9              		.eabi_attribute 26, 1
  10              		.eabi_attribute 30, 1
  11              		.eabi_attribute 34, 1
  12              		.eabi_attribute 18, 4
  13              		.thumb
  14              		.file	"Buzzer_PWM.c"
  15              		.text
  16              	.Ltext0:
  17              		.cfi_sections	.debug_frame
  18              		.section	.text.Buzzer_PWM_Enable,"ax",%progbits
  19              		.align	2
  20              		.global	Buzzer_PWM_Enable
  21              		.thumb
  22              		.thumb_func
  23              		.type	Buzzer_PWM_Enable, %function
  24              	Buzzer_PWM_Enable:
  25              	.LFB2:
  26              		.file 1 "Generated_Source\\PSoC5\\Buzzer_PWM.c"
   1:Generated_Source\PSoC5/Buzzer_PWM.c **** /*******************************************************************************
   2:Generated_Source\PSoC5/Buzzer_PWM.c **** * File Name: Buzzer_PWM.c
   3:Generated_Source\PSoC5/Buzzer_PWM.c **** * Version 3.30
   4:Generated_Source\PSoC5/Buzzer_PWM.c **** *
   5:Generated_Source\PSoC5/Buzzer_PWM.c **** * Description:
   6:Generated_Source\PSoC5/Buzzer_PWM.c **** *  The PWM User Module consist of an 8 or 16-bit counter with two 8 or 16-bit
   7:Generated_Source\PSoC5/Buzzer_PWM.c **** *  comparitors. Each instance of this user module is capable of generating
   8:Generated_Source\PSoC5/Buzzer_PWM.c **** *  two PWM outputs with the same period. The pulse width is selectable between
   9:Generated_Source\PSoC5/Buzzer_PWM.c **** *  1 and 255/65535. The period is selectable between 2 and 255/65536 clocks.
  10:Generated_Source\PSoC5/Buzzer_PWM.c **** *  The compare value output may be configured to be active when the present
  11:Generated_Source\PSoC5/Buzzer_PWM.c **** *  counter is less than or less than/equal to the compare value.
  12:Generated_Source\PSoC5/Buzzer_PWM.c **** *  A terminal count output is also provided. It generates a pulse one clock
  13:Generated_Source\PSoC5/Buzzer_PWM.c **** *  width wide when the counter is equal to zero.
  14:Generated_Source\PSoC5/Buzzer_PWM.c **** *
  15:Generated_Source\PSoC5/Buzzer_PWM.c **** * Note:
  16:Generated_Source\PSoC5/Buzzer_PWM.c **** *
  17:Generated_Source\PSoC5/Buzzer_PWM.c **** *******************************************************************************
  18:Generated_Source\PSoC5/Buzzer_PWM.c **** * Copyright 2008-2014, Cypress Semiconductor Corporation.  All rights reserved.
  19:Generated_Source\PSoC5/Buzzer_PWM.c **** * You may use this file only in accordance with the license, terms, conditions,
  20:Generated_Source\PSoC5/Buzzer_PWM.c **** * disclaimers, and limitations in the end user license agreement accompanying
  21:Generated_Source\PSoC5/Buzzer_PWM.c **** * the software package with which this file was provided.
  22:Generated_Source\PSoC5/Buzzer_PWM.c **** ********************************************************************************/
  23:Generated_Source\PSoC5/Buzzer_PWM.c **** 
  24:Generated_Source\PSoC5/Buzzer_PWM.c **** #include "Buzzer_PWM.h"
  25:Generated_Source\PSoC5/Buzzer_PWM.c **** 
  26:Generated_Source\PSoC5/Buzzer_PWM.c **** /* Error message for removed <resource> through optimization */
  27:Generated_Source\PSoC5/Buzzer_PWM.c **** #ifdef Buzzer_PWM_PWMUDB_genblk1_ctrlreg__REMOVED
  28:Generated_Source\PSoC5/Buzzer_PWM.c ****     #error PWM_v3_30 detected with a constant 0 for the enable or \
  29:Generated_Source\PSoC5/Buzzer_PWM.c ****          constant 1 for reset. This will prevent the component from operating.
  30:Generated_Source\PSoC5/Buzzer_PWM.c **** #endif /* Buzzer_PWM_PWMUDB_genblk1_ctrlreg__REMOVED */
  31:Generated_Source\PSoC5/Buzzer_PWM.c **** 
ARM GAS  C:\Users\NHANPH~1\AppData\Local\Temp\cchDbn02.s 			page 2


  32:Generated_Source\PSoC5/Buzzer_PWM.c **** uint8 Buzzer_PWM_initVar = 0u;
  33:Generated_Source\PSoC5/Buzzer_PWM.c **** 
  34:Generated_Source\PSoC5/Buzzer_PWM.c **** 
  35:Generated_Source\PSoC5/Buzzer_PWM.c **** /*******************************************************************************
  36:Generated_Source\PSoC5/Buzzer_PWM.c **** * Function Name: Buzzer_PWM_Start
  37:Generated_Source\PSoC5/Buzzer_PWM.c **** ********************************************************************************
  38:Generated_Source\PSoC5/Buzzer_PWM.c **** *
  39:Generated_Source\PSoC5/Buzzer_PWM.c **** * Summary:
  40:Generated_Source\PSoC5/Buzzer_PWM.c **** *  The start function initializes the pwm with the default values, the
  41:Generated_Source\PSoC5/Buzzer_PWM.c **** *  enables the counter to begin counting.  It does not enable interrupts,
  42:Generated_Source\PSoC5/Buzzer_PWM.c **** *  the EnableInt command should be called if interrupt generation is required.
  43:Generated_Source\PSoC5/Buzzer_PWM.c **** *
  44:Generated_Source\PSoC5/Buzzer_PWM.c **** * Parameters:
  45:Generated_Source\PSoC5/Buzzer_PWM.c **** *  None
  46:Generated_Source\PSoC5/Buzzer_PWM.c **** *
  47:Generated_Source\PSoC5/Buzzer_PWM.c **** * Return:
  48:Generated_Source\PSoC5/Buzzer_PWM.c **** *  None
  49:Generated_Source\PSoC5/Buzzer_PWM.c **** *
  50:Generated_Source\PSoC5/Buzzer_PWM.c **** * Global variables:
  51:Generated_Source\PSoC5/Buzzer_PWM.c **** *  Buzzer_PWM_initVar: Is modified when this function is called for the
  52:Generated_Source\PSoC5/Buzzer_PWM.c **** *   first time. Is used to ensure that initialization happens only once.
  53:Generated_Source\PSoC5/Buzzer_PWM.c **** *
  54:Generated_Source\PSoC5/Buzzer_PWM.c **** *******************************************************************************/
  55:Generated_Source\PSoC5/Buzzer_PWM.c **** void Buzzer_PWM_Start(void) 
  56:Generated_Source\PSoC5/Buzzer_PWM.c **** {
  57:Generated_Source\PSoC5/Buzzer_PWM.c ****     /* If not Initialized then initialize all required hardware and software */
  58:Generated_Source\PSoC5/Buzzer_PWM.c ****     if(Buzzer_PWM_initVar == 0u)
  59:Generated_Source\PSoC5/Buzzer_PWM.c ****     {
  60:Generated_Source\PSoC5/Buzzer_PWM.c ****         Buzzer_PWM_Init();
  61:Generated_Source\PSoC5/Buzzer_PWM.c ****         Buzzer_PWM_initVar = 1u;
  62:Generated_Source\PSoC5/Buzzer_PWM.c ****     }
  63:Generated_Source\PSoC5/Buzzer_PWM.c ****     Buzzer_PWM_Enable();
  64:Generated_Source\PSoC5/Buzzer_PWM.c **** 
  65:Generated_Source\PSoC5/Buzzer_PWM.c **** }
  66:Generated_Source\PSoC5/Buzzer_PWM.c **** 
  67:Generated_Source\PSoC5/Buzzer_PWM.c **** 
  68:Generated_Source\PSoC5/Buzzer_PWM.c **** /*******************************************************************************
  69:Generated_Source\PSoC5/Buzzer_PWM.c **** * Function Name: Buzzer_PWM_Init
  70:Generated_Source\PSoC5/Buzzer_PWM.c **** ********************************************************************************
  71:Generated_Source\PSoC5/Buzzer_PWM.c **** *
  72:Generated_Source\PSoC5/Buzzer_PWM.c **** * Summary:
  73:Generated_Source\PSoC5/Buzzer_PWM.c **** *  Initialize component's parameters to the parameters set by user in the
  74:Generated_Source\PSoC5/Buzzer_PWM.c **** *  customizer of the component placed onto schematic. Usually called in
  75:Generated_Source\PSoC5/Buzzer_PWM.c **** *  Buzzer_PWM_Start().
  76:Generated_Source\PSoC5/Buzzer_PWM.c **** *
  77:Generated_Source\PSoC5/Buzzer_PWM.c **** * Parameters:
  78:Generated_Source\PSoC5/Buzzer_PWM.c **** *  None
  79:Generated_Source\PSoC5/Buzzer_PWM.c **** *
  80:Generated_Source\PSoC5/Buzzer_PWM.c **** * Return:
  81:Generated_Source\PSoC5/Buzzer_PWM.c **** *  None
  82:Generated_Source\PSoC5/Buzzer_PWM.c **** *
  83:Generated_Source\PSoC5/Buzzer_PWM.c **** *******************************************************************************/
  84:Generated_Source\PSoC5/Buzzer_PWM.c **** void Buzzer_PWM_Init(void) 
  85:Generated_Source\PSoC5/Buzzer_PWM.c **** {
  86:Generated_Source\PSoC5/Buzzer_PWM.c ****     #if (Buzzer_PWM_UsingFixedFunction || Buzzer_PWM_UseControl)
  87:Generated_Source\PSoC5/Buzzer_PWM.c ****         uint8 ctrl;
  88:Generated_Source\PSoC5/Buzzer_PWM.c ****     #endif /* (Buzzer_PWM_UsingFixedFunction || Buzzer_PWM_UseControl) */
ARM GAS  C:\Users\NHANPH~1\AppData\Local\Temp\cchDbn02.s 			page 3


  89:Generated_Source\PSoC5/Buzzer_PWM.c **** 
  90:Generated_Source\PSoC5/Buzzer_PWM.c ****     #if(!Buzzer_PWM_UsingFixedFunction)
  91:Generated_Source\PSoC5/Buzzer_PWM.c ****         #if(Buzzer_PWM_UseStatus)
  92:Generated_Source\PSoC5/Buzzer_PWM.c ****             /* Interrupt State Backup for Critical Region*/
  93:Generated_Source\PSoC5/Buzzer_PWM.c ****             uint8 Buzzer_PWM_interruptState;
  94:Generated_Source\PSoC5/Buzzer_PWM.c ****         #endif /* (Buzzer_PWM_UseStatus) */
  95:Generated_Source\PSoC5/Buzzer_PWM.c ****     #endif /* (!Buzzer_PWM_UsingFixedFunction) */
  96:Generated_Source\PSoC5/Buzzer_PWM.c **** 
  97:Generated_Source\PSoC5/Buzzer_PWM.c ****     #if (Buzzer_PWM_UsingFixedFunction)
  98:Generated_Source\PSoC5/Buzzer_PWM.c ****         /* You are allowed to write the compare value (FF only) */
  99:Generated_Source\PSoC5/Buzzer_PWM.c ****         Buzzer_PWM_CONTROL |= Buzzer_PWM_CFG0_MODE;
 100:Generated_Source\PSoC5/Buzzer_PWM.c ****         #if (Buzzer_PWM_DeadBand2_4)
 101:Generated_Source\PSoC5/Buzzer_PWM.c ****             Buzzer_PWM_CONTROL |= Buzzer_PWM_CFG0_DB;
 102:Generated_Source\PSoC5/Buzzer_PWM.c ****         #endif /* (Buzzer_PWM_DeadBand2_4) */
 103:Generated_Source\PSoC5/Buzzer_PWM.c **** 
 104:Generated_Source\PSoC5/Buzzer_PWM.c ****         ctrl = Buzzer_PWM_CONTROL3 & ((uint8 )(~Buzzer_PWM_CTRL_CMPMODE1_MASK));
 105:Generated_Source\PSoC5/Buzzer_PWM.c ****         Buzzer_PWM_CONTROL3 = ctrl | Buzzer_PWM_DEFAULT_COMPARE1_MODE;
 106:Generated_Source\PSoC5/Buzzer_PWM.c **** 
 107:Generated_Source\PSoC5/Buzzer_PWM.c ****          /* Clear and Set SYNCTC and SYNCCMP bits of RT1 register */
 108:Generated_Source\PSoC5/Buzzer_PWM.c ****         Buzzer_PWM_RT1 &= ((uint8)(~Buzzer_PWM_RT1_MASK));
 109:Generated_Source\PSoC5/Buzzer_PWM.c ****         Buzzer_PWM_RT1 |= Buzzer_PWM_SYNC;
 110:Generated_Source\PSoC5/Buzzer_PWM.c **** 
 111:Generated_Source\PSoC5/Buzzer_PWM.c ****         /*Enable DSI Sync all all inputs of the PWM*/
 112:Generated_Source\PSoC5/Buzzer_PWM.c ****         Buzzer_PWM_RT1 &= ((uint8)(~Buzzer_PWM_SYNCDSI_MASK));
 113:Generated_Source\PSoC5/Buzzer_PWM.c ****         Buzzer_PWM_RT1 |= Buzzer_PWM_SYNCDSI_EN;
 114:Generated_Source\PSoC5/Buzzer_PWM.c **** 
 115:Generated_Source\PSoC5/Buzzer_PWM.c ****     #elif (Buzzer_PWM_UseControl)
 116:Generated_Source\PSoC5/Buzzer_PWM.c ****         /* Set the default compare mode defined in the parameter */
 117:Generated_Source\PSoC5/Buzzer_PWM.c ****         ctrl = Buzzer_PWM_CONTROL & ((uint8)(~Buzzer_PWM_CTRL_CMPMODE2_MASK)) &
 118:Generated_Source\PSoC5/Buzzer_PWM.c ****                 ((uint8)(~Buzzer_PWM_CTRL_CMPMODE1_MASK));
 119:Generated_Source\PSoC5/Buzzer_PWM.c ****         Buzzer_PWM_CONTROL = ctrl | Buzzer_PWM_DEFAULT_COMPARE2_MODE |
 120:Generated_Source\PSoC5/Buzzer_PWM.c ****                                    Buzzer_PWM_DEFAULT_COMPARE1_MODE;
 121:Generated_Source\PSoC5/Buzzer_PWM.c ****     #endif /* (Buzzer_PWM_UsingFixedFunction) */
 122:Generated_Source\PSoC5/Buzzer_PWM.c **** 
 123:Generated_Source\PSoC5/Buzzer_PWM.c ****     #if (!Buzzer_PWM_UsingFixedFunction)
 124:Generated_Source\PSoC5/Buzzer_PWM.c ****         #if (Buzzer_PWM_Resolution == 8)
 125:Generated_Source\PSoC5/Buzzer_PWM.c ****             /* Set FIFO 0 to 1 byte register for period*/
 126:Generated_Source\PSoC5/Buzzer_PWM.c ****             Buzzer_PWM_AUX_CONTROLDP0 |= (Buzzer_PWM_AUX_CTRL_FIFO0_CLR);
 127:Generated_Source\PSoC5/Buzzer_PWM.c ****         #else /* (Buzzer_PWM_Resolution == 16)*/
 128:Generated_Source\PSoC5/Buzzer_PWM.c ****             /* Set FIFO 0 to 1 byte register for period */
 129:Generated_Source\PSoC5/Buzzer_PWM.c ****             Buzzer_PWM_AUX_CONTROLDP0 |= (Buzzer_PWM_AUX_CTRL_FIFO0_CLR);
 130:Generated_Source\PSoC5/Buzzer_PWM.c ****             Buzzer_PWM_AUX_CONTROLDP1 |= (Buzzer_PWM_AUX_CTRL_FIFO0_CLR);
 131:Generated_Source\PSoC5/Buzzer_PWM.c ****         #endif /* (Buzzer_PWM_Resolution == 8) */
 132:Generated_Source\PSoC5/Buzzer_PWM.c **** 
 133:Generated_Source\PSoC5/Buzzer_PWM.c ****         Buzzer_PWM_WriteCounter(Buzzer_PWM_INIT_PERIOD_VALUE);
 134:Generated_Source\PSoC5/Buzzer_PWM.c ****     #endif /* (!Buzzer_PWM_UsingFixedFunction) */
 135:Generated_Source\PSoC5/Buzzer_PWM.c **** 
 136:Generated_Source\PSoC5/Buzzer_PWM.c ****     Buzzer_PWM_WritePeriod(Buzzer_PWM_INIT_PERIOD_VALUE);
 137:Generated_Source\PSoC5/Buzzer_PWM.c **** 
 138:Generated_Source\PSoC5/Buzzer_PWM.c ****         #if (Buzzer_PWM_UseOneCompareMode)
 139:Generated_Source\PSoC5/Buzzer_PWM.c ****             Buzzer_PWM_WriteCompare(Buzzer_PWM_INIT_COMPARE_VALUE1);
 140:Generated_Source\PSoC5/Buzzer_PWM.c ****         #else
 141:Generated_Source\PSoC5/Buzzer_PWM.c ****             Buzzer_PWM_WriteCompare1(Buzzer_PWM_INIT_COMPARE_VALUE1);
 142:Generated_Source\PSoC5/Buzzer_PWM.c ****             Buzzer_PWM_WriteCompare2(Buzzer_PWM_INIT_COMPARE_VALUE2);
 143:Generated_Source\PSoC5/Buzzer_PWM.c ****         #endif /* (Buzzer_PWM_UseOneCompareMode) */
 144:Generated_Source\PSoC5/Buzzer_PWM.c **** 
 145:Generated_Source\PSoC5/Buzzer_PWM.c ****         #if (Buzzer_PWM_KillModeMinTime)
ARM GAS  C:\Users\NHANPH~1\AppData\Local\Temp\cchDbn02.s 			page 4


 146:Generated_Source\PSoC5/Buzzer_PWM.c ****             Buzzer_PWM_WriteKillTime(Buzzer_PWM_MinimumKillTime);
 147:Generated_Source\PSoC5/Buzzer_PWM.c ****         #endif /* (Buzzer_PWM_KillModeMinTime) */
 148:Generated_Source\PSoC5/Buzzer_PWM.c **** 
 149:Generated_Source\PSoC5/Buzzer_PWM.c ****         #if (Buzzer_PWM_DeadBandUsed)
 150:Generated_Source\PSoC5/Buzzer_PWM.c ****             Buzzer_PWM_WriteDeadTime(Buzzer_PWM_INIT_DEAD_TIME);
 151:Generated_Source\PSoC5/Buzzer_PWM.c ****         #endif /* (Buzzer_PWM_DeadBandUsed) */
 152:Generated_Source\PSoC5/Buzzer_PWM.c **** 
 153:Generated_Source\PSoC5/Buzzer_PWM.c ****     #if (Buzzer_PWM_UseStatus || Buzzer_PWM_UsingFixedFunction)
 154:Generated_Source\PSoC5/Buzzer_PWM.c ****         Buzzer_PWM_SetInterruptMode(Buzzer_PWM_INIT_INTERRUPTS_MODE);
 155:Generated_Source\PSoC5/Buzzer_PWM.c ****     #endif /* (Buzzer_PWM_UseStatus || Buzzer_PWM_UsingFixedFunction) */
 156:Generated_Source\PSoC5/Buzzer_PWM.c **** 
 157:Generated_Source\PSoC5/Buzzer_PWM.c ****     #if (Buzzer_PWM_UsingFixedFunction)
 158:Generated_Source\PSoC5/Buzzer_PWM.c ****         /* Globally Enable the Fixed Function Block chosen */
 159:Generated_Source\PSoC5/Buzzer_PWM.c ****         Buzzer_PWM_GLOBAL_ENABLE |= Buzzer_PWM_BLOCK_EN_MASK;
 160:Generated_Source\PSoC5/Buzzer_PWM.c ****         /* Set the Interrupt source to come from the status register */
 161:Generated_Source\PSoC5/Buzzer_PWM.c ****         Buzzer_PWM_CONTROL2 |= Buzzer_PWM_CTRL2_IRQ_SEL;
 162:Generated_Source\PSoC5/Buzzer_PWM.c ****     #else
 163:Generated_Source\PSoC5/Buzzer_PWM.c ****         #if(Buzzer_PWM_UseStatus)
 164:Generated_Source\PSoC5/Buzzer_PWM.c **** 
 165:Generated_Source\PSoC5/Buzzer_PWM.c ****             /* CyEnterCriticalRegion and CyExitCriticalRegion are used to mark following region cri
 166:Generated_Source\PSoC5/Buzzer_PWM.c ****             /* Enter Critical Region*/
 167:Generated_Source\PSoC5/Buzzer_PWM.c ****             Buzzer_PWM_interruptState = CyEnterCriticalSection();
 168:Generated_Source\PSoC5/Buzzer_PWM.c ****             /* Use the interrupt output of the status register for IRQ output */
 169:Generated_Source\PSoC5/Buzzer_PWM.c ****             Buzzer_PWM_STATUS_AUX_CTRL |= Buzzer_PWM_STATUS_ACTL_INT_EN_MASK;
 170:Generated_Source\PSoC5/Buzzer_PWM.c **** 
 171:Generated_Source\PSoC5/Buzzer_PWM.c ****              /* Exit Critical Region*/
 172:Generated_Source\PSoC5/Buzzer_PWM.c ****             CyExitCriticalSection(Buzzer_PWM_interruptState);
 173:Generated_Source\PSoC5/Buzzer_PWM.c **** 
 174:Generated_Source\PSoC5/Buzzer_PWM.c ****             /* Clear the FIFO to enable the Buzzer_PWM_STATUS_FIFOFULL
 175:Generated_Source\PSoC5/Buzzer_PWM.c ****                    bit to be set on FIFO full. */
 176:Generated_Source\PSoC5/Buzzer_PWM.c ****             Buzzer_PWM_ClearFIFO();
 177:Generated_Source\PSoC5/Buzzer_PWM.c ****         #endif /* (Buzzer_PWM_UseStatus) */
 178:Generated_Source\PSoC5/Buzzer_PWM.c ****     #endif /* (Buzzer_PWM_UsingFixedFunction) */
 179:Generated_Source\PSoC5/Buzzer_PWM.c **** }
 180:Generated_Source\PSoC5/Buzzer_PWM.c **** 
 181:Generated_Source\PSoC5/Buzzer_PWM.c **** 
 182:Generated_Source\PSoC5/Buzzer_PWM.c **** /*******************************************************************************
 183:Generated_Source\PSoC5/Buzzer_PWM.c **** * Function Name: Buzzer_PWM_Enable
 184:Generated_Source\PSoC5/Buzzer_PWM.c **** ********************************************************************************
 185:Generated_Source\PSoC5/Buzzer_PWM.c **** *
 186:Generated_Source\PSoC5/Buzzer_PWM.c **** * Summary:
 187:Generated_Source\PSoC5/Buzzer_PWM.c **** *  Enables the PWM block operation
 188:Generated_Source\PSoC5/Buzzer_PWM.c **** *
 189:Generated_Source\PSoC5/Buzzer_PWM.c **** * Parameters:
 190:Generated_Source\PSoC5/Buzzer_PWM.c **** *  None
 191:Generated_Source\PSoC5/Buzzer_PWM.c **** *
 192:Generated_Source\PSoC5/Buzzer_PWM.c **** * Return:
 193:Generated_Source\PSoC5/Buzzer_PWM.c **** *  None
 194:Generated_Source\PSoC5/Buzzer_PWM.c **** *
 195:Generated_Source\PSoC5/Buzzer_PWM.c **** * Side Effects:
 196:Generated_Source\PSoC5/Buzzer_PWM.c **** *  This works only if software enable mode is chosen
 197:Generated_Source\PSoC5/Buzzer_PWM.c **** *
 198:Generated_Source\PSoC5/Buzzer_PWM.c **** *******************************************************************************/
 199:Generated_Source\PSoC5/Buzzer_PWM.c **** void Buzzer_PWM_Enable(void) 
 200:Generated_Source\PSoC5/Buzzer_PWM.c **** {
  27              		.loc 1 200 0
  28              		.cfi_startproc
ARM GAS  C:\Users\NHANPH~1\AppData\Local\Temp\cchDbn02.s 			page 5


  29              		@ args = 0, pretend = 0, frame = 0
  30              		@ frame_needed = 0, uses_anonymous_args = 0
  31              		@ link register save eliminated.
 201:Generated_Source\PSoC5/Buzzer_PWM.c ****     /* Globally Enable the Fixed Function Block chosen */
 202:Generated_Source\PSoC5/Buzzer_PWM.c ****     #if (Buzzer_PWM_UsingFixedFunction)
 203:Generated_Source\PSoC5/Buzzer_PWM.c ****         Buzzer_PWM_GLOBAL_ENABLE |= Buzzer_PWM_BLOCK_EN_MASK;
 204:Generated_Source\PSoC5/Buzzer_PWM.c ****         Buzzer_PWM_GLOBAL_STBY_ENABLE |= Buzzer_PWM_BLOCK_STBY_EN_MASK;
 205:Generated_Source\PSoC5/Buzzer_PWM.c ****     #endif /* (Buzzer_PWM_UsingFixedFunction) */
 206:Generated_Source\PSoC5/Buzzer_PWM.c **** 
 207:Generated_Source\PSoC5/Buzzer_PWM.c ****     /* Enable the PWM from the control register  */
 208:Generated_Source\PSoC5/Buzzer_PWM.c ****     #if (Buzzer_PWM_UseControl || Buzzer_PWM_UsingFixedFunction)
 209:Generated_Source\PSoC5/Buzzer_PWM.c ****         Buzzer_PWM_CONTROL |= Buzzer_PWM_CTRL_ENABLE;
  32              		.loc 1 209 0
  33 0000 024A     		ldr	r2, .L2
  34 0002 1378     		ldrb	r3, [r2]	@ zero_extendqisi2
  35 0004 43F08003 		orr	r3, r3, #128
  36 0008 1370     		strb	r3, [r2]
  37 000a 7047     		bx	lr
  38              	.L3:
  39              		.align	2
  40              	.L2:
  41 000c 76650040 		.word	1073767798
  42              		.cfi_endproc
  43              	.LFE2:
  44              		.size	Buzzer_PWM_Enable, .-Buzzer_PWM_Enable
  45              		.section	.text.Buzzer_PWM_Stop,"ax",%progbits
  46              		.align	2
  47              		.global	Buzzer_PWM_Stop
  48              		.thumb
  49              		.thumb_func
  50              		.type	Buzzer_PWM_Stop, %function
  51              	Buzzer_PWM_Stop:
  52              	.LFB3:
 210:Generated_Source\PSoC5/Buzzer_PWM.c ****     #endif /* (Buzzer_PWM_UseControl || Buzzer_PWM_UsingFixedFunction) */
 211:Generated_Source\PSoC5/Buzzer_PWM.c **** }
 212:Generated_Source\PSoC5/Buzzer_PWM.c **** 
 213:Generated_Source\PSoC5/Buzzer_PWM.c **** 
 214:Generated_Source\PSoC5/Buzzer_PWM.c **** /*******************************************************************************
 215:Generated_Source\PSoC5/Buzzer_PWM.c **** * Function Name: Buzzer_PWM_Stop
 216:Generated_Source\PSoC5/Buzzer_PWM.c **** ********************************************************************************
 217:Generated_Source\PSoC5/Buzzer_PWM.c **** *
 218:Generated_Source\PSoC5/Buzzer_PWM.c **** * Summary:
 219:Generated_Source\PSoC5/Buzzer_PWM.c **** *  The stop function halts the PWM, but does not change any modes or disable
 220:Generated_Source\PSoC5/Buzzer_PWM.c **** *  interrupts.
 221:Generated_Source\PSoC5/Buzzer_PWM.c **** *
 222:Generated_Source\PSoC5/Buzzer_PWM.c **** * Parameters:
 223:Generated_Source\PSoC5/Buzzer_PWM.c **** *  None
 224:Generated_Source\PSoC5/Buzzer_PWM.c **** *
 225:Generated_Source\PSoC5/Buzzer_PWM.c **** * Return:
 226:Generated_Source\PSoC5/Buzzer_PWM.c **** *  None
 227:Generated_Source\PSoC5/Buzzer_PWM.c **** *
 228:Generated_Source\PSoC5/Buzzer_PWM.c **** * Side Effects:
 229:Generated_Source\PSoC5/Buzzer_PWM.c **** *  If the Enable mode is set to Hardware only then this function
 230:Generated_Source\PSoC5/Buzzer_PWM.c **** *  has no effect on the operation of the PWM
 231:Generated_Source\PSoC5/Buzzer_PWM.c **** *
 232:Generated_Source\PSoC5/Buzzer_PWM.c **** *******************************************************************************/
 233:Generated_Source\PSoC5/Buzzer_PWM.c **** void Buzzer_PWM_Stop(void) 
ARM GAS  C:\Users\NHANPH~1\AppData\Local\Temp\cchDbn02.s 			page 6


 234:Generated_Source\PSoC5/Buzzer_PWM.c **** {
  53              		.loc 1 234 0
  54              		.cfi_startproc
  55              		@ args = 0, pretend = 0, frame = 0
  56              		@ frame_needed = 0, uses_anonymous_args = 0
  57              		@ link register save eliminated.
 235:Generated_Source\PSoC5/Buzzer_PWM.c ****     #if (Buzzer_PWM_UseControl || Buzzer_PWM_UsingFixedFunction)
 236:Generated_Source\PSoC5/Buzzer_PWM.c ****         Buzzer_PWM_CONTROL &= ((uint8)(~Buzzer_PWM_CTRL_ENABLE));
  58              		.loc 1 236 0
  59 0000 024A     		ldr	r2, .L5
  60 0002 1378     		ldrb	r3, [r2]	@ zero_extendqisi2
  61 0004 03F07F03 		and	r3, r3, #127
  62 0008 1370     		strb	r3, [r2]
  63 000a 7047     		bx	lr
  64              	.L6:
  65              		.align	2
  66              	.L5:
  67 000c 76650040 		.word	1073767798
  68              		.cfi_endproc
  69              	.LFE3:
  70              		.size	Buzzer_PWM_Stop, .-Buzzer_PWM_Stop
  71              		.section	.text.Buzzer_PWM_WriteCounter,"ax",%progbits
  72              		.align	2
  73              		.global	Buzzer_PWM_WriteCounter
  74              		.thumb
  75              		.thumb_func
  76              		.type	Buzzer_PWM_WriteCounter, %function
  77              	Buzzer_PWM_WriteCounter:
  78              	.LFB4:
 237:Generated_Source\PSoC5/Buzzer_PWM.c ****     #endif /* (Buzzer_PWM_UseControl || Buzzer_PWM_UsingFixedFunction) */
 238:Generated_Source\PSoC5/Buzzer_PWM.c **** 
 239:Generated_Source\PSoC5/Buzzer_PWM.c ****     /* Globally disable the Fixed Function Block chosen */
 240:Generated_Source\PSoC5/Buzzer_PWM.c ****     #if (Buzzer_PWM_UsingFixedFunction)
 241:Generated_Source\PSoC5/Buzzer_PWM.c ****         Buzzer_PWM_GLOBAL_ENABLE &= ((uint8)(~Buzzer_PWM_BLOCK_EN_MASK));
 242:Generated_Source\PSoC5/Buzzer_PWM.c ****         Buzzer_PWM_GLOBAL_STBY_ENABLE &= ((uint8)(~Buzzer_PWM_BLOCK_STBY_EN_MASK));
 243:Generated_Source\PSoC5/Buzzer_PWM.c ****     #endif /* (Buzzer_PWM_UsingFixedFunction) */
 244:Generated_Source\PSoC5/Buzzer_PWM.c **** }
 245:Generated_Source\PSoC5/Buzzer_PWM.c **** 
 246:Generated_Source\PSoC5/Buzzer_PWM.c **** #if (Buzzer_PWM_UseOneCompareMode)
 247:Generated_Source\PSoC5/Buzzer_PWM.c ****     #if (Buzzer_PWM_CompareMode1SW)
 248:Generated_Source\PSoC5/Buzzer_PWM.c **** 
 249:Generated_Source\PSoC5/Buzzer_PWM.c **** 
 250:Generated_Source\PSoC5/Buzzer_PWM.c ****         /*******************************************************************************
 251:Generated_Source\PSoC5/Buzzer_PWM.c ****         * Function Name: Buzzer_PWM_SetCompareMode
 252:Generated_Source\PSoC5/Buzzer_PWM.c ****         ********************************************************************************
 253:Generated_Source\PSoC5/Buzzer_PWM.c ****         *
 254:Generated_Source\PSoC5/Buzzer_PWM.c ****         * Summary:
 255:Generated_Source\PSoC5/Buzzer_PWM.c ****         *  This function writes the Compare Mode for the pwm output when in Dither mode,
 256:Generated_Source\PSoC5/Buzzer_PWM.c ****         *  Center Align Mode or One Output Mode.
 257:Generated_Source\PSoC5/Buzzer_PWM.c ****         *
 258:Generated_Source\PSoC5/Buzzer_PWM.c ****         * Parameters:
 259:Generated_Source\PSoC5/Buzzer_PWM.c ****         *  comparemode:  The new compare mode for the PWM output. Use the compare types
 260:Generated_Source\PSoC5/Buzzer_PWM.c ****         *                defined in the H file as input arguments.
 261:Generated_Source\PSoC5/Buzzer_PWM.c ****         *
 262:Generated_Source\PSoC5/Buzzer_PWM.c ****         * Return:
 263:Generated_Source\PSoC5/Buzzer_PWM.c ****         *  None
 264:Generated_Source\PSoC5/Buzzer_PWM.c ****         *
ARM GAS  C:\Users\NHANPH~1\AppData\Local\Temp\cchDbn02.s 			page 7


 265:Generated_Source\PSoC5/Buzzer_PWM.c ****         *******************************************************************************/
 266:Generated_Source\PSoC5/Buzzer_PWM.c ****         void Buzzer_PWM_SetCompareMode(uint8 comparemode) 
 267:Generated_Source\PSoC5/Buzzer_PWM.c ****         {
 268:Generated_Source\PSoC5/Buzzer_PWM.c ****             #if(Buzzer_PWM_UsingFixedFunction)
 269:Generated_Source\PSoC5/Buzzer_PWM.c **** 
 270:Generated_Source\PSoC5/Buzzer_PWM.c ****                 #if(0 != Buzzer_PWM_CTRL_CMPMODE1_SHIFT)
 271:Generated_Source\PSoC5/Buzzer_PWM.c ****                     uint8 comparemodemasked = ((uint8)((uint8)comparemode << Buzzer_PWM_CTRL_CMPMOD
 272:Generated_Source\PSoC5/Buzzer_PWM.c ****                 #else
 273:Generated_Source\PSoC5/Buzzer_PWM.c ****                     uint8 comparemodemasked = comparemode;
 274:Generated_Source\PSoC5/Buzzer_PWM.c ****                 #endif /* (0 != Buzzer_PWM_CTRL_CMPMODE1_SHIFT) */
 275:Generated_Source\PSoC5/Buzzer_PWM.c **** 
 276:Generated_Source\PSoC5/Buzzer_PWM.c ****                 Buzzer_PWM_CONTROL3 &= ((uint8)(~Buzzer_PWM_CTRL_CMPMODE1_MASK)); /*Clear Existing 
 277:Generated_Source\PSoC5/Buzzer_PWM.c ****                 Buzzer_PWM_CONTROL3 |= comparemodemasked;
 278:Generated_Source\PSoC5/Buzzer_PWM.c **** 
 279:Generated_Source\PSoC5/Buzzer_PWM.c ****             #elif (Buzzer_PWM_UseControl)
 280:Generated_Source\PSoC5/Buzzer_PWM.c **** 
 281:Generated_Source\PSoC5/Buzzer_PWM.c ****                 #if(0 != Buzzer_PWM_CTRL_CMPMODE1_SHIFT)
 282:Generated_Source\PSoC5/Buzzer_PWM.c ****                     uint8 comparemode1masked = ((uint8)((uint8)comparemode << Buzzer_PWM_CTRL_CMPMO
 283:Generated_Source\PSoC5/Buzzer_PWM.c ****                                                 Buzzer_PWM_CTRL_CMPMODE1_MASK;
 284:Generated_Source\PSoC5/Buzzer_PWM.c ****                 #else
 285:Generated_Source\PSoC5/Buzzer_PWM.c ****                     uint8 comparemode1masked = comparemode & Buzzer_PWM_CTRL_CMPMODE1_MASK;
 286:Generated_Source\PSoC5/Buzzer_PWM.c ****                 #endif /* (0 != Buzzer_PWM_CTRL_CMPMODE1_SHIFT) */
 287:Generated_Source\PSoC5/Buzzer_PWM.c **** 
 288:Generated_Source\PSoC5/Buzzer_PWM.c ****                 #if(0 != Buzzer_PWM_CTRL_CMPMODE2_SHIFT)
 289:Generated_Source\PSoC5/Buzzer_PWM.c ****                     uint8 comparemode2masked = ((uint8)((uint8)comparemode << Buzzer_PWM_CTRL_CMPMO
 290:Generated_Source\PSoC5/Buzzer_PWM.c ****                                                Buzzer_PWM_CTRL_CMPMODE2_MASK;
 291:Generated_Source\PSoC5/Buzzer_PWM.c ****                 #else
 292:Generated_Source\PSoC5/Buzzer_PWM.c ****                     uint8 comparemode2masked = comparemode & Buzzer_PWM_CTRL_CMPMODE2_MASK;
 293:Generated_Source\PSoC5/Buzzer_PWM.c ****                 #endif /* (0 != Buzzer_PWM_CTRL_CMPMODE2_SHIFT) */
 294:Generated_Source\PSoC5/Buzzer_PWM.c **** 
 295:Generated_Source\PSoC5/Buzzer_PWM.c ****                 /*Clear existing mode */
 296:Generated_Source\PSoC5/Buzzer_PWM.c ****                 Buzzer_PWM_CONTROL &= ((uint8)(~(Buzzer_PWM_CTRL_CMPMODE1_MASK |
 297:Generated_Source\PSoC5/Buzzer_PWM.c ****                                             Buzzer_PWM_CTRL_CMPMODE2_MASK)));
 298:Generated_Source\PSoC5/Buzzer_PWM.c ****                 Buzzer_PWM_CONTROL |= (comparemode1masked | comparemode2masked);
 299:Generated_Source\PSoC5/Buzzer_PWM.c **** 
 300:Generated_Source\PSoC5/Buzzer_PWM.c ****             #else
 301:Generated_Source\PSoC5/Buzzer_PWM.c ****                 uint8 temp = comparemode;
 302:Generated_Source\PSoC5/Buzzer_PWM.c ****             #endif /* (Buzzer_PWM_UsingFixedFunction) */
 303:Generated_Source\PSoC5/Buzzer_PWM.c ****         }
 304:Generated_Source\PSoC5/Buzzer_PWM.c ****     #endif /* Buzzer_PWM_CompareMode1SW */
 305:Generated_Source\PSoC5/Buzzer_PWM.c **** 
 306:Generated_Source\PSoC5/Buzzer_PWM.c **** #else /* UseOneCompareMode */
 307:Generated_Source\PSoC5/Buzzer_PWM.c **** 
 308:Generated_Source\PSoC5/Buzzer_PWM.c ****     #if (Buzzer_PWM_CompareMode1SW)
 309:Generated_Source\PSoC5/Buzzer_PWM.c **** 
 310:Generated_Source\PSoC5/Buzzer_PWM.c **** 
 311:Generated_Source\PSoC5/Buzzer_PWM.c ****         /*******************************************************************************
 312:Generated_Source\PSoC5/Buzzer_PWM.c ****         * Function Name: Buzzer_PWM_SetCompareMode1
 313:Generated_Source\PSoC5/Buzzer_PWM.c ****         ********************************************************************************
 314:Generated_Source\PSoC5/Buzzer_PWM.c ****         *
 315:Generated_Source\PSoC5/Buzzer_PWM.c ****         * Summary:
 316:Generated_Source\PSoC5/Buzzer_PWM.c ****         *  This function writes the Compare Mode for the pwm or pwm1 output
 317:Generated_Source\PSoC5/Buzzer_PWM.c ****         *
 318:Generated_Source\PSoC5/Buzzer_PWM.c ****         * Parameters:
 319:Generated_Source\PSoC5/Buzzer_PWM.c ****         *  comparemode:  The new compare mode for the PWM output. Use the compare types
 320:Generated_Source\PSoC5/Buzzer_PWM.c ****         *                defined in the H file as input arguments.
 321:Generated_Source\PSoC5/Buzzer_PWM.c ****         *
ARM GAS  C:\Users\NHANPH~1\AppData\Local\Temp\cchDbn02.s 			page 8


 322:Generated_Source\PSoC5/Buzzer_PWM.c ****         * Return:
 323:Generated_Source\PSoC5/Buzzer_PWM.c ****         *  None
 324:Generated_Source\PSoC5/Buzzer_PWM.c ****         *
 325:Generated_Source\PSoC5/Buzzer_PWM.c ****         *******************************************************************************/
 326:Generated_Source\PSoC5/Buzzer_PWM.c ****         void Buzzer_PWM_SetCompareMode1(uint8 comparemode) 
 327:Generated_Source\PSoC5/Buzzer_PWM.c ****         {
 328:Generated_Source\PSoC5/Buzzer_PWM.c ****             #if(0 != Buzzer_PWM_CTRL_CMPMODE1_SHIFT)
 329:Generated_Source\PSoC5/Buzzer_PWM.c ****                 uint8 comparemodemasked = ((uint8)((uint8)comparemode << Buzzer_PWM_CTRL_CMPMODE1_S
 330:Generated_Source\PSoC5/Buzzer_PWM.c ****                                            Buzzer_PWM_CTRL_CMPMODE1_MASK;
 331:Generated_Source\PSoC5/Buzzer_PWM.c ****             #else
 332:Generated_Source\PSoC5/Buzzer_PWM.c ****                 uint8 comparemodemasked = comparemode & Buzzer_PWM_CTRL_CMPMODE1_MASK;
 333:Generated_Source\PSoC5/Buzzer_PWM.c ****             #endif /* (0 != Buzzer_PWM_CTRL_CMPMODE1_SHIFT) */
 334:Generated_Source\PSoC5/Buzzer_PWM.c **** 
 335:Generated_Source\PSoC5/Buzzer_PWM.c ****             #if (Buzzer_PWM_UseControl)
 336:Generated_Source\PSoC5/Buzzer_PWM.c ****                 Buzzer_PWM_CONTROL &= ((uint8)(~Buzzer_PWM_CTRL_CMPMODE1_MASK)); /*Clear existing m
 337:Generated_Source\PSoC5/Buzzer_PWM.c ****                 Buzzer_PWM_CONTROL |= comparemodemasked;
 338:Generated_Source\PSoC5/Buzzer_PWM.c ****             #endif /* (Buzzer_PWM_UseControl) */
 339:Generated_Source\PSoC5/Buzzer_PWM.c ****         }
 340:Generated_Source\PSoC5/Buzzer_PWM.c ****     #endif /* Buzzer_PWM_CompareMode1SW */
 341:Generated_Source\PSoC5/Buzzer_PWM.c **** 
 342:Generated_Source\PSoC5/Buzzer_PWM.c **** #if (Buzzer_PWM_CompareMode2SW)
 343:Generated_Source\PSoC5/Buzzer_PWM.c **** 
 344:Generated_Source\PSoC5/Buzzer_PWM.c **** 
 345:Generated_Source\PSoC5/Buzzer_PWM.c ****     /*******************************************************************************
 346:Generated_Source\PSoC5/Buzzer_PWM.c ****     * Function Name: Buzzer_PWM_SetCompareMode2
 347:Generated_Source\PSoC5/Buzzer_PWM.c ****     ********************************************************************************
 348:Generated_Source\PSoC5/Buzzer_PWM.c ****     *
 349:Generated_Source\PSoC5/Buzzer_PWM.c ****     * Summary:
 350:Generated_Source\PSoC5/Buzzer_PWM.c ****     *  This function writes the Compare Mode for the pwm or pwm2 output
 351:Generated_Source\PSoC5/Buzzer_PWM.c ****     *
 352:Generated_Source\PSoC5/Buzzer_PWM.c ****     * Parameters:
 353:Generated_Source\PSoC5/Buzzer_PWM.c ****     *  comparemode:  The new compare mode for the PWM output. Use the compare types
 354:Generated_Source\PSoC5/Buzzer_PWM.c ****     *                defined in the H file as input arguments.
 355:Generated_Source\PSoC5/Buzzer_PWM.c ****     *
 356:Generated_Source\PSoC5/Buzzer_PWM.c ****     * Return:
 357:Generated_Source\PSoC5/Buzzer_PWM.c ****     *  None
 358:Generated_Source\PSoC5/Buzzer_PWM.c ****     *
 359:Generated_Source\PSoC5/Buzzer_PWM.c ****     *******************************************************************************/
 360:Generated_Source\PSoC5/Buzzer_PWM.c ****     void Buzzer_PWM_SetCompareMode2(uint8 comparemode) 
 361:Generated_Source\PSoC5/Buzzer_PWM.c ****     {
 362:Generated_Source\PSoC5/Buzzer_PWM.c **** 
 363:Generated_Source\PSoC5/Buzzer_PWM.c ****         #if(0 != Buzzer_PWM_CTRL_CMPMODE2_SHIFT)
 364:Generated_Source\PSoC5/Buzzer_PWM.c ****             uint8 comparemodemasked = ((uint8)((uint8)comparemode << Buzzer_PWM_CTRL_CMPMODE2_SHIFT
 365:Generated_Source\PSoC5/Buzzer_PWM.c ****                                                  Buzzer_PWM_CTRL_CMPMODE2_MASK;
 366:Generated_Source\PSoC5/Buzzer_PWM.c ****         #else
 367:Generated_Source\PSoC5/Buzzer_PWM.c ****             uint8 comparemodemasked = comparemode & Buzzer_PWM_CTRL_CMPMODE2_MASK;
 368:Generated_Source\PSoC5/Buzzer_PWM.c ****         #endif /* (0 != Buzzer_PWM_CTRL_CMPMODE2_SHIFT) */
 369:Generated_Source\PSoC5/Buzzer_PWM.c **** 
 370:Generated_Source\PSoC5/Buzzer_PWM.c ****         #if (Buzzer_PWM_UseControl)
 371:Generated_Source\PSoC5/Buzzer_PWM.c ****             Buzzer_PWM_CONTROL &= ((uint8)(~Buzzer_PWM_CTRL_CMPMODE2_MASK)); /*Clear existing mode 
 372:Generated_Source\PSoC5/Buzzer_PWM.c ****             Buzzer_PWM_CONTROL |= comparemodemasked;
 373:Generated_Source\PSoC5/Buzzer_PWM.c ****         #endif /* (Buzzer_PWM_UseControl) */
 374:Generated_Source\PSoC5/Buzzer_PWM.c ****     }
 375:Generated_Source\PSoC5/Buzzer_PWM.c ****     #endif /*Buzzer_PWM_CompareMode2SW */
 376:Generated_Source\PSoC5/Buzzer_PWM.c **** 
 377:Generated_Source\PSoC5/Buzzer_PWM.c **** #endif /* UseOneCompareMode */
 378:Generated_Source\PSoC5/Buzzer_PWM.c **** 
ARM GAS  C:\Users\NHANPH~1\AppData\Local\Temp\cchDbn02.s 			page 9


 379:Generated_Source\PSoC5/Buzzer_PWM.c **** 
 380:Generated_Source\PSoC5/Buzzer_PWM.c **** #if (!Buzzer_PWM_UsingFixedFunction)
 381:Generated_Source\PSoC5/Buzzer_PWM.c **** 
 382:Generated_Source\PSoC5/Buzzer_PWM.c **** 
 383:Generated_Source\PSoC5/Buzzer_PWM.c ****     /*******************************************************************************
 384:Generated_Source\PSoC5/Buzzer_PWM.c ****     * Function Name: Buzzer_PWM_WriteCounter
 385:Generated_Source\PSoC5/Buzzer_PWM.c ****     ********************************************************************************
 386:Generated_Source\PSoC5/Buzzer_PWM.c ****     *
 387:Generated_Source\PSoC5/Buzzer_PWM.c ****     * Summary:
 388:Generated_Source\PSoC5/Buzzer_PWM.c ****     *  Writes a new counter value directly to the counter register. This will be
 389:Generated_Source\PSoC5/Buzzer_PWM.c ****     *  implemented for that currently running period and only that period. This API
 390:Generated_Source\PSoC5/Buzzer_PWM.c ****     *  is valid only for UDB implementation and not available for fixed function
 391:Generated_Source\PSoC5/Buzzer_PWM.c ****     *  PWM implementation.
 392:Generated_Source\PSoC5/Buzzer_PWM.c ****     *
 393:Generated_Source\PSoC5/Buzzer_PWM.c ****     * Parameters:
 394:Generated_Source\PSoC5/Buzzer_PWM.c ****     *  counter:  The period new period counter value.
 395:Generated_Source\PSoC5/Buzzer_PWM.c ****     *
 396:Generated_Source\PSoC5/Buzzer_PWM.c ****     * Return:
 397:Generated_Source\PSoC5/Buzzer_PWM.c ****     *  None
 398:Generated_Source\PSoC5/Buzzer_PWM.c ****     *
 399:Generated_Source\PSoC5/Buzzer_PWM.c ****     * Side Effects:
 400:Generated_Source\PSoC5/Buzzer_PWM.c ****     *  The PWM Period will be reloaded when a counter value will be a zero
 401:Generated_Source\PSoC5/Buzzer_PWM.c ****     *
 402:Generated_Source\PSoC5/Buzzer_PWM.c ****     *******************************************************************************/
 403:Generated_Source\PSoC5/Buzzer_PWM.c ****     void Buzzer_PWM_WriteCounter(uint8 counter) \
 404:Generated_Source\PSoC5/Buzzer_PWM.c ****                                        
 405:Generated_Source\PSoC5/Buzzer_PWM.c ****     {
  79              		.loc 1 405 0
  80              		.cfi_startproc
  81              		@ args = 0, pretend = 0, frame = 0
  82              		@ frame_needed = 0, uses_anonymous_args = 0
  83              		@ link register save eliminated.
  84              	.LVL0:
 406:Generated_Source\PSoC5/Buzzer_PWM.c ****         CY_SET_REG8(Buzzer_PWM_COUNTER_LSB_PTR, counter);
  85              		.loc 1 406 0
  86 0000 014B     		ldr	r3, .L8
  87 0002 1870     		strb	r0, [r3]
  88 0004 7047     		bx	lr
  89              	.L9:
  90 0006 00BF     		.align	2
  91              	.L8:
  92 0008 06650040 		.word	1073767686
  93              		.cfi_endproc
  94              	.LFE4:
  95              		.size	Buzzer_PWM_WriteCounter, .-Buzzer_PWM_WriteCounter
  96              		.section	.text.Buzzer_PWM_ReadCounter,"ax",%progbits
  97              		.align	2
  98              		.global	Buzzer_PWM_ReadCounter
  99              		.thumb
 100              		.thumb_func
 101              		.type	Buzzer_PWM_ReadCounter, %function
 102              	Buzzer_PWM_ReadCounter:
 103              	.LFB5:
 407:Generated_Source\PSoC5/Buzzer_PWM.c ****     }
 408:Generated_Source\PSoC5/Buzzer_PWM.c **** 
 409:Generated_Source\PSoC5/Buzzer_PWM.c **** 
 410:Generated_Source\PSoC5/Buzzer_PWM.c ****     /*******************************************************************************
ARM GAS  C:\Users\NHANPH~1\AppData\Local\Temp\cchDbn02.s 			page 10


 411:Generated_Source\PSoC5/Buzzer_PWM.c ****     * Function Name: Buzzer_PWM_ReadCounter
 412:Generated_Source\PSoC5/Buzzer_PWM.c ****     ********************************************************************************
 413:Generated_Source\PSoC5/Buzzer_PWM.c ****     *
 414:Generated_Source\PSoC5/Buzzer_PWM.c ****     * Summary:
 415:Generated_Source\PSoC5/Buzzer_PWM.c ****     *  This function returns the current value of the counter.  It doesn't matter
 416:Generated_Source\PSoC5/Buzzer_PWM.c ****     *  if the counter is enabled or running.
 417:Generated_Source\PSoC5/Buzzer_PWM.c ****     *
 418:Generated_Source\PSoC5/Buzzer_PWM.c ****     * Parameters:
 419:Generated_Source\PSoC5/Buzzer_PWM.c ****     *  None
 420:Generated_Source\PSoC5/Buzzer_PWM.c ****     *
 421:Generated_Source\PSoC5/Buzzer_PWM.c ****     * Return:
 422:Generated_Source\PSoC5/Buzzer_PWM.c ****     *  The current value of the counter.
 423:Generated_Source\PSoC5/Buzzer_PWM.c ****     *
 424:Generated_Source\PSoC5/Buzzer_PWM.c ****     *******************************************************************************/
 425:Generated_Source\PSoC5/Buzzer_PWM.c ****     uint8 Buzzer_PWM_ReadCounter(void) 
 426:Generated_Source\PSoC5/Buzzer_PWM.c ****     {
 104              		.loc 1 426 0
 105              		.cfi_startproc
 106              		@ args = 0, pretend = 0, frame = 0
 107              		@ frame_needed = 0, uses_anonymous_args = 0
 108              		@ link register save eliminated.
 427:Generated_Source\PSoC5/Buzzer_PWM.c ****         /* Force capture by reading Accumulator */
 428:Generated_Source\PSoC5/Buzzer_PWM.c ****         /* Must first do a software capture to be able to read the counter */
 429:Generated_Source\PSoC5/Buzzer_PWM.c ****         /* It is up to the user code to make sure there isn't already captured data in the FIFO */
 430:Generated_Source\PSoC5/Buzzer_PWM.c ****           (void)CY_GET_REG8(Buzzer_PWM_COUNTERCAP_LSB_PTR_8BIT);
 109              		.loc 1 430 0
 110 0000 024B     		ldr	r3, .L11
 111 0002 1B78     		ldrb	r3, [r3]	@ zero_extendqisi2
 431:Generated_Source\PSoC5/Buzzer_PWM.c **** 
 432:Generated_Source\PSoC5/Buzzer_PWM.c ****         /* Read the data from the FIFO */
 433:Generated_Source\PSoC5/Buzzer_PWM.c ****         return (CY_GET_REG8(Buzzer_PWM_CAPTURE_LSB_PTR));
 112              		.loc 1 433 0
 113 0004 024B     		ldr	r3, .L11+4
 114 0006 1878     		ldrb	r0, [r3]	@ zero_extendqisi2
 434:Generated_Source\PSoC5/Buzzer_PWM.c ****     }
 115              		.loc 1 434 0
 116 0008 7047     		bx	lr
 117              	.L12:
 118 000a 00BF     		.align	2
 119              	.L11:
 120 000c 16650040 		.word	1073767702
 121 0010 56650040 		.word	1073767766
 122              		.cfi_endproc
 123              	.LFE5:
 124              		.size	Buzzer_PWM_ReadCounter, .-Buzzer_PWM_ReadCounter
 125              		.section	.text.Buzzer_PWM_WritePeriod,"ax",%progbits
 126              		.align	2
 127              		.global	Buzzer_PWM_WritePeriod
 128              		.thumb
 129              		.thumb_func
 130              		.type	Buzzer_PWM_WritePeriod, %function
 131              	Buzzer_PWM_WritePeriod:
 132              	.LFB6:
 435:Generated_Source\PSoC5/Buzzer_PWM.c **** 
 436:Generated_Source\PSoC5/Buzzer_PWM.c ****     #if (Buzzer_PWM_UseStatus)
 437:Generated_Source\PSoC5/Buzzer_PWM.c **** 
 438:Generated_Source\PSoC5/Buzzer_PWM.c **** 
ARM GAS  C:\Users\NHANPH~1\AppData\Local\Temp\cchDbn02.s 			page 11


 439:Generated_Source\PSoC5/Buzzer_PWM.c ****         /*******************************************************************************
 440:Generated_Source\PSoC5/Buzzer_PWM.c ****         * Function Name: Buzzer_PWM_ClearFIFO
 441:Generated_Source\PSoC5/Buzzer_PWM.c ****         ********************************************************************************
 442:Generated_Source\PSoC5/Buzzer_PWM.c ****         *
 443:Generated_Source\PSoC5/Buzzer_PWM.c ****         * Summary:
 444:Generated_Source\PSoC5/Buzzer_PWM.c ****         *  This function clears all capture data from the capture FIFO
 445:Generated_Source\PSoC5/Buzzer_PWM.c ****         *
 446:Generated_Source\PSoC5/Buzzer_PWM.c ****         * Parameters:
 447:Generated_Source\PSoC5/Buzzer_PWM.c ****         *  None
 448:Generated_Source\PSoC5/Buzzer_PWM.c ****         *
 449:Generated_Source\PSoC5/Buzzer_PWM.c ****         * Return:
 450:Generated_Source\PSoC5/Buzzer_PWM.c ****         *  None
 451:Generated_Source\PSoC5/Buzzer_PWM.c ****         *
 452:Generated_Source\PSoC5/Buzzer_PWM.c ****         *******************************************************************************/
 453:Generated_Source\PSoC5/Buzzer_PWM.c ****         void Buzzer_PWM_ClearFIFO(void) 
 454:Generated_Source\PSoC5/Buzzer_PWM.c ****         {
 455:Generated_Source\PSoC5/Buzzer_PWM.c ****             while(0u != (Buzzer_PWM_ReadStatusRegister() & Buzzer_PWM_STATUS_FIFONEMPTY))
 456:Generated_Source\PSoC5/Buzzer_PWM.c ****             {
 457:Generated_Source\PSoC5/Buzzer_PWM.c ****                 (void)Buzzer_PWM_ReadCapture();
 458:Generated_Source\PSoC5/Buzzer_PWM.c ****             }
 459:Generated_Source\PSoC5/Buzzer_PWM.c ****         }
 460:Generated_Source\PSoC5/Buzzer_PWM.c **** 
 461:Generated_Source\PSoC5/Buzzer_PWM.c ****     #endif /* Buzzer_PWM_UseStatus */
 462:Generated_Source\PSoC5/Buzzer_PWM.c **** 
 463:Generated_Source\PSoC5/Buzzer_PWM.c **** #endif /* !Buzzer_PWM_UsingFixedFunction */
 464:Generated_Source\PSoC5/Buzzer_PWM.c **** 
 465:Generated_Source\PSoC5/Buzzer_PWM.c **** 
 466:Generated_Source\PSoC5/Buzzer_PWM.c **** /*******************************************************************************
 467:Generated_Source\PSoC5/Buzzer_PWM.c **** * Function Name: Buzzer_PWM_WritePeriod
 468:Generated_Source\PSoC5/Buzzer_PWM.c **** ********************************************************************************
 469:Generated_Source\PSoC5/Buzzer_PWM.c **** *
 470:Generated_Source\PSoC5/Buzzer_PWM.c **** * Summary:
 471:Generated_Source\PSoC5/Buzzer_PWM.c **** *  This function is used to change the period of the counter.  The new period
 472:Generated_Source\PSoC5/Buzzer_PWM.c **** *  will be loaded the next time terminal count is detected.
 473:Generated_Source\PSoC5/Buzzer_PWM.c **** *
 474:Generated_Source\PSoC5/Buzzer_PWM.c **** * Parameters:
 475:Generated_Source\PSoC5/Buzzer_PWM.c **** *  period:  Period value. May be between 1 and (2^Resolution)-1.  A value of 0
 476:Generated_Source\PSoC5/Buzzer_PWM.c **** *           will result in the counter remaining at zero.
 477:Generated_Source\PSoC5/Buzzer_PWM.c **** *
 478:Generated_Source\PSoC5/Buzzer_PWM.c **** * Return:
 479:Generated_Source\PSoC5/Buzzer_PWM.c **** *  None
 480:Generated_Source\PSoC5/Buzzer_PWM.c **** *
 481:Generated_Source\PSoC5/Buzzer_PWM.c **** *******************************************************************************/
 482:Generated_Source\PSoC5/Buzzer_PWM.c **** void Buzzer_PWM_WritePeriod(uint8 period) 
 483:Generated_Source\PSoC5/Buzzer_PWM.c **** {
 133              		.loc 1 483 0
 134              		.cfi_startproc
 135              		@ args = 0, pretend = 0, frame = 0
 136              		@ frame_needed = 0, uses_anonymous_args = 0
 137              		@ link register save eliminated.
 138              	.LVL1:
 484:Generated_Source\PSoC5/Buzzer_PWM.c ****     #if(Buzzer_PWM_UsingFixedFunction)
 485:Generated_Source\PSoC5/Buzzer_PWM.c ****         CY_SET_REG16(Buzzer_PWM_PERIOD_LSB_PTR, (uint16)period);
 486:Generated_Source\PSoC5/Buzzer_PWM.c ****     #else
 487:Generated_Source\PSoC5/Buzzer_PWM.c ****         CY_SET_REG8(Buzzer_PWM_PERIOD_LSB_PTR, period);
 139              		.loc 1 487 0
 140 0000 014B     		ldr	r3, .L14
ARM GAS  C:\Users\NHANPH~1\AppData\Local\Temp\cchDbn02.s 			page 12


 141 0002 1870     		strb	r0, [r3]
 142 0004 7047     		bx	lr
 143              	.L15:
 144 0006 00BF     		.align	2
 145              	.L14:
 146 0008 46650040 		.word	1073767750
 147              		.cfi_endproc
 148              	.LFE6:
 149              		.size	Buzzer_PWM_WritePeriod, .-Buzzer_PWM_WritePeriod
 150              		.section	.text.Buzzer_PWM_WriteCompare,"ax",%progbits
 151              		.align	2
 152              		.global	Buzzer_PWM_WriteCompare
 153              		.thumb
 154              		.thumb_func
 155              		.type	Buzzer_PWM_WriteCompare, %function
 156              	Buzzer_PWM_WriteCompare:
 157              	.LFB7:
 488:Generated_Source\PSoC5/Buzzer_PWM.c ****     #endif /* (Buzzer_PWM_UsingFixedFunction) */
 489:Generated_Source\PSoC5/Buzzer_PWM.c **** }
 490:Generated_Source\PSoC5/Buzzer_PWM.c **** 
 491:Generated_Source\PSoC5/Buzzer_PWM.c **** #if (Buzzer_PWM_UseOneCompareMode)
 492:Generated_Source\PSoC5/Buzzer_PWM.c **** 
 493:Generated_Source\PSoC5/Buzzer_PWM.c **** 
 494:Generated_Source\PSoC5/Buzzer_PWM.c ****     /*******************************************************************************
 495:Generated_Source\PSoC5/Buzzer_PWM.c ****     * Function Name: Buzzer_PWM_WriteCompare
 496:Generated_Source\PSoC5/Buzzer_PWM.c ****     ********************************************************************************
 497:Generated_Source\PSoC5/Buzzer_PWM.c ****     *
 498:Generated_Source\PSoC5/Buzzer_PWM.c ****     * Summary:
 499:Generated_Source\PSoC5/Buzzer_PWM.c ****     *  This funtion is used to change the compare1 value when the PWM is in Dither
 500:Generated_Source\PSoC5/Buzzer_PWM.c ****     *  mode. The compare output will reflect the new value on the next UDB clock.
 501:Generated_Source\PSoC5/Buzzer_PWM.c ****     *  The compare output will be driven high when the present counter value is
 502:Generated_Source\PSoC5/Buzzer_PWM.c ****     *  compared to the compare value based on the compare mode defined in
 503:Generated_Source\PSoC5/Buzzer_PWM.c ****     *  Dither Mode.
 504:Generated_Source\PSoC5/Buzzer_PWM.c ****     *
 505:Generated_Source\PSoC5/Buzzer_PWM.c ****     * Parameters:
 506:Generated_Source\PSoC5/Buzzer_PWM.c ****     *  compare:  New compare value.
 507:Generated_Source\PSoC5/Buzzer_PWM.c ****     *
 508:Generated_Source\PSoC5/Buzzer_PWM.c ****     * Return:
 509:Generated_Source\PSoC5/Buzzer_PWM.c ****     *  None
 510:Generated_Source\PSoC5/Buzzer_PWM.c ****     *
 511:Generated_Source\PSoC5/Buzzer_PWM.c ****     * Side Effects:
 512:Generated_Source\PSoC5/Buzzer_PWM.c ****     *  This function is only available if the PWM mode parameter is set to
 513:Generated_Source\PSoC5/Buzzer_PWM.c ****     *  Dither Mode, Center Aligned Mode or One Output Mode
 514:Generated_Source\PSoC5/Buzzer_PWM.c ****     *
 515:Generated_Source\PSoC5/Buzzer_PWM.c ****     *******************************************************************************/
 516:Generated_Source\PSoC5/Buzzer_PWM.c ****     void Buzzer_PWM_WriteCompare(uint8 compare) \
 517:Generated_Source\PSoC5/Buzzer_PWM.c ****                                        
 518:Generated_Source\PSoC5/Buzzer_PWM.c ****     {
 158              		.loc 1 518 0
 159              		.cfi_startproc
 160              		@ args = 0, pretend = 0, frame = 0
 161              		@ frame_needed = 0, uses_anonymous_args = 0
 162              		@ link register save eliminated.
 163              	.LVL2:
 519:Generated_Source\PSoC5/Buzzer_PWM.c ****         #if(Buzzer_PWM_UsingFixedFunction)
 520:Generated_Source\PSoC5/Buzzer_PWM.c ****             CY_SET_REG16(Buzzer_PWM_COMPARE1_LSB_PTR, (uint16)compare);
 521:Generated_Source\PSoC5/Buzzer_PWM.c ****         #else
ARM GAS  C:\Users\NHANPH~1\AppData\Local\Temp\cchDbn02.s 			page 13


 522:Generated_Source\PSoC5/Buzzer_PWM.c ****             CY_SET_REG8(Buzzer_PWM_COMPARE1_LSB_PTR, compare);
 164              		.loc 1 522 0
 165 0000 014B     		ldr	r3, .L17
 166 0002 1870     		strb	r0, [r3]
 167 0004 7047     		bx	lr
 168              	.L18:
 169 0006 00BF     		.align	2
 170              	.L17:
 171 0008 26650040 		.word	1073767718
 172              		.cfi_endproc
 173              	.LFE7:
 174              		.size	Buzzer_PWM_WriteCompare, .-Buzzer_PWM_WriteCompare
 175              		.section	.text.Buzzer_PWM_Init,"ax",%progbits
 176              		.align	2
 177              		.global	Buzzer_PWM_Init
 178              		.thumb
 179              		.thumb_func
 180              		.type	Buzzer_PWM_Init, %function
 181              	Buzzer_PWM_Init:
 182              	.LFB1:
  85:Generated_Source\PSoC5/Buzzer_PWM.c ****     #if (Buzzer_PWM_UsingFixedFunction || Buzzer_PWM_UseControl)
 183              		.loc 1 85 0
 184              		.cfi_startproc
 185              		@ args = 0, pretend = 0, frame = 0
 186              		@ frame_needed = 0, uses_anonymous_args = 0
 187 0000 08B5     		push	{r3, lr}
 188              		.cfi_def_cfa_offset 8
 189              		.cfi_offset 3, -8
 190              		.cfi_offset 14, -4
 117:Generated_Source\PSoC5/Buzzer_PWM.c ****                 ((uint8)(~Buzzer_PWM_CTRL_CMPMODE1_MASK));
 191              		.loc 1 117 0
 192 0002 0B4A     		ldr	r2, .L21
 193 0004 1378     		ldrb	r3, [r2]	@ zero_extendqisi2
 194 0006 03F0C003 		and	r3, r3, #192
 195              	.LVL3:
 119:Generated_Source\PSoC5/Buzzer_PWM.c ****                                    Buzzer_PWM_DEFAULT_COMPARE1_MODE;
 196              		.loc 1 119 0
 197 000a 43F00903 		orr	r3, r3, #9
 198              	.LVL4:
 199 000e 1370     		strb	r3, [r2]
 126:Generated_Source\PSoC5/Buzzer_PWM.c ****         #else /* (Buzzer_PWM_Resolution == 16)*/
 200              		.loc 1 126 0
 201 0010 2032     		adds	r2, r2, #32
 202 0012 1378     		ldrb	r3, [r2]	@ zero_extendqisi2
 203 0014 43F00103 		orr	r3, r3, #1
 204 0018 1370     		strb	r3, [r2]
 133:Generated_Source\PSoC5/Buzzer_PWM.c ****     #endif /* (!Buzzer_PWM_UsingFixedFunction) */
 205              		.loc 1 133 0
 206 001a FF20     		movs	r0, #255
 207 001c FFF7FEFF 		bl	Buzzer_PWM_WriteCounter
 208              	.LVL5:
 136:Generated_Source\PSoC5/Buzzer_PWM.c **** 
 209              		.loc 1 136 0
 210 0020 FF20     		movs	r0, #255
 211 0022 FFF7FEFF 		bl	Buzzer_PWM_WritePeriod
 212              	.LVL6:
 139:Generated_Source\PSoC5/Buzzer_PWM.c ****         #else
ARM GAS  C:\Users\NHANPH~1\AppData\Local\Temp\cchDbn02.s 			page 14


 213              		.loc 1 139 0
 214 0026 7F20     		movs	r0, #127
 215 0028 FFF7FEFF 		bl	Buzzer_PWM_WriteCompare
 216              	.LVL7:
 217 002c 08BD     		pop	{r3, pc}
 218              	.L22:
 219 002e 00BF     		.align	2
 220              	.L21:
 221 0030 76650040 		.word	1073767798
 222              		.cfi_endproc
 223              	.LFE1:
 224              		.size	Buzzer_PWM_Init, .-Buzzer_PWM_Init
 225              		.section	.text.Buzzer_PWM_Start,"ax",%progbits
 226              		.align	2
 227              		.global	Buzzer_PWM_Start
 228              		.thumb
 229              		.thumb_func
 230              		.type	Buzzer_PWM_Start, %function
 231              	Buzzer_PWM_Start:
 232              	.LFB0:
  56:Generated_Source\PSoC5/Buzzer_PWM.c ****     /* If not Initialized then initialize all required hardware and software */
 233              		.loc 1 56 0
 234              		.cfi_startproc
 235              		@ args = 0, pretend = 0, frame = 0
 236              		@ frame_needed = 0, uses_anonymous_args = 0
 237 0000 08B5     		push	{r3, lr}
 238              		.cfi_def_cfa_offset 8
 239              		.cfi_offset 3, -8
 240              		.cfi_offset 14, -4
  58:Generated_Source\PSoC5/Buzzer_PWM.c ****     {
 241              		.loc 1 58 0
 242 0002 054B     		ldr	r3, .L26
 243 0004 1B78     		ldrb	r3, [r3]	@ zero_extendqisi2
 244 0006 23B9     		cbnz	r3, .L24
  60:Generated_Source\PSoC5/Buzzer_PWM.c ****         Buzzer_PWM_initVar = 1u;
 245              		.loc 1 60 0
 246 0008 FFF7FEFF 		bl	Buzzer_PWM_Init
 247              	.LVL8:
  61:Generated_Source\PSoC5/Buzzer_PWM.c ****     }
 248              		.loc 1 61 0
 249 000c 0122     		movs	r2, #1
 250 000e 024B     		ldr	r3, .L26
 251 0010 1A70     		strb	r2, [r3]
 252              	.L24:
  63:Generated_Source\PSoC5/Buzzer_PWM.c **** 
 253              		.loc 1 63 0
 254 0012 FFF7FEFF 		bl	Buzzer_PWM_Enable
 255              	.LVL9:
 256 0016 08BD     		pop	{r3, pc}
 257              	.L27:
 258              		.align	2
 259              	.L26:
 260 0018 00000000 		.word	.LANCHOR0
 261              		.cfi_endproc
 262              	.LFE0:
 263              		.size	Buzzer_PWM_Start, .-Buzzer_PWM_Start
 264              		.section	.text.Buzzer_PWM_ReadControlRegister,"ax",%progbits
ARM GAS  C:\Users\NHANPH~1\AppData\Local\Temp\cchDbn02.s 			page 15


 265              		.align	2
 266              		.global	Buzzer_PWM_ReadControlRegister
 267              		.thumb
 268              		.thumb_func
 269              		.type	Buzzer_PWM_ReadControlRegister, %function
 270              	Buzzer_PWM_ReadControlRegister:
 271              	.LFB8:
 523:Generated_Source\PSoC5/Buzzer_PWM.c ****         #endif /* (Buzzer_PWM_UsingFixedFunction) */
 524:Generated_Source\PSoC5/Buzzer_PWM.c **** 
 525:Generated_Source\PSoC5/Buzzer_PWM.c ****         #if (Buzzer_PWM_PWMMode == Buzzer_PWM__B_PWM__DITHER)
 526:Generated_Source\PSoC5/Buzzer_PWM.c ****             #if(Buzzer_PWM_UsingFixedFunction)
 527:Generated_Source\PSoC5/Buzzer_PWM.c ****                 CY_SET_REG16(Buzzer_PWM_COMPARE2_LSB_PTR, (uint16)(compare + 1u));
 528:Generated_Source\PSoC5/Buzzer_PWM.c ****             #else
 529:Generated_Source\PSoC5/Buzzer_PWM.c ****                 CY_SET_REG8(Buzzer_PWM_COMPARE2_LSB_PTR, (compare + 1u));
 530:Generated_Source\PSoC5/Buzzer_PWM.c ****             #endif /* (Buzzer_PWM_UsingFixedFunction) */
 531:Generated_Source\PSoC5/Buzzer_PWM.c ****         #endif /* (Buzzer_PWM_PWMMode == Buzzer_PWM__B_PWM__DITHER) */
 532:Generated_Source\PSoC5/Buzzer_PWM.c ****     }
 533:Generated_Source\PSoC5/Buzzer_PWM.c **** 
 534:Generated_Source\PSoC5/Buzzer_PWM.c **** 
 535:Generated_Source\PSoC5/Buzzer_PWM.c **** #else
 536:Generated_Source\PSoC5/Buzzer_PWM.c **** 
 537:Generated_Source\PSoC5/Buzzer_PWM.c **** 
 538:Generated_Source\PSoC5/Buzzer_PWM.c ****     /*******************************************************************************
 539:Generated_Source\PSoC5/Buzzer_PWM.c ****     * Function Name: Buzzer_PWM_WriteCompare1
 540:Generated_Source\PSoC5/Buzzer_PWM.c ****     ********************************************************************************
 541:Generated_Source\PSoC5/Buzzer_PWM.c ****     *
 542:Generated_Source\PSoC5/Buzzer_PWM.c ****     * Summary:
 543:Generated_Source\PSoC5/Buzzer_PWM.c ****     *  This funtion is used to change the compare1 value.  The compare output will
 544:Generated_Source\PSoC5/Buzzer_PWM.c ****     *  reflect the new value on the next UDB clock.  The compare output will be
 545:Generated_Source\PSoC5/Buzzer_PWM.c ****     *  driven high when the present counter value is less than or less than or
 546:Generated_Source\PSoC5/Buzzer_PWM.c ****     *  equal to the compare register, depending on the mode.
 547:Generated_Source\PSoC5/Buzzer_PWM.c ****     *
 548:Generated_Source\PSoC5/Buzzer_PWM.c ****     * Parameters:
 549:Generated_Source\PSoC5/Buzzer_PWM.c ****     *  compare:  New compare value.
 550:Generated_Source\PSoC5/Buzzer_PWM.c ****     *
 551:Generated_Source\PSoC5/Buzzer_PWM.c ****     * Return:
 552:Generated_Source\PSoC5/Buzzer_PWM.c ****     *  None
 553:Generated_Source\PSoC5/Buzzer_PWM.c ****     *
 554:Generated_Source\PSoC5/Buzzer_PWM.c ****     *******************************************************************************/
 555:Generated_Source\PSoC5/Buzzer_PWM.c ****     void Buzzer_PWM_WriteCompare1(uint8 compare) \
 556:Generated_Source\PSoC5/Buzzer_PWM.c ****                                         
 557:Generated_Source\PSoC5/Buzzer_PWM.c ****     {
 558:Generated_Source\PSoC5/Buzzer_PWM.c ****         #if(Buzzer_PWM_UsingFixedFunction)
 559:Generated_Source\PSoC5/Buzzer_PWM.c ****             CY_SET_REG16(Buzzer_PWM_COMPARE1_LSB_PTR, (uint16)compare);
 560:Generated_Source\PSoC5/Buzzer_PWM.c ****         #else
 561:Generated_Source\PSoC5/Buzzer_PWM.c ****             CY_SET_REG8(Buzzer_PWM_COMPARE1_LSB_PTR, compare);
 562:Generated_Source\PSoC5/Buzzer_PWM.c ****         #endif /* (Buzzer_PWM_UsingFixedFunction) */
 563:Generated_Source\PSoC5/Buzzer_PWM.c ****     }
 564:Generated_Source\PSoC5/Buzzer_PWM.c **** 
 565:Generated_Source\PSoC5/Buzzer_PWM.c **** 
 566:Generated_Source\PSoC5/Buzzer_PWM.c ****     /*******************************************************************************
 567:Generated_Source\PSoC5/Buzzer_PWM.c ****     * Function Name: Buzzer_PWM_WriteCompare2
 568:Generated_Source\PSoC5/Buzzer_PWM.c ****     ********************************************************************************
 569:Generated_Source\PSoC5/Buzzer_PWM.c ****     *
 570:Generated_Source\PSoC5/Buzzer_PWM.c ****     * Summary:
 571:Generated_Source\PSoC5/Buzzer_PWM.c ****     *  This funtion is used to change the compare value, for compare1 output.
 572:Generated_Source\PSoC5/Buzzer_PWM.c ****     *  The compare output will reflect the new value on the next UDB clock.
ARM GAS  C:\Users\NHANPH~1\AppData\Local\Temp\cchDbn02.s 			page 16


 573:Generated_Source\PSoC5/Buzzer_PWM.c ****     *  The compare output will be driven high when the present counter value is
 574:Generated_Source\PSoC5/Buzzer_PWM.c ****     *  less than or less than or equal to the compare register, depending on the
 575:Generated_Source\PSoC5/Buzzer_PWM.c ****     *  mode.
 576:Generated_Source\PSoC5/Buzzer_PWM.c ****     *
 577:Generated_Source\PSoC5/Buzzer_PWM.c ****     * Parameters:
 578:Generated_Source\PSoC5/Buzzer_PWM.c ****     *  compare:  New compare value.
 579:Generated_Source\PSoC5/Buzzer_PWM.c ****     *
 580:Generated_Source\PSoC5/Buzzer_PWM.c ****     * Return:
 581:Generated_Source\PSoC5/Buzzer_PWM.c ****     *  None
 582:Generated_Source\PSoC5/Buzzer_PWM.c ****     *
 583:Generated_Source\PSoC5/Buzzer_PWM.c ****     *******************************************************************************/
 584:Generated_Source\PSoC5/Buzzer_PWM.c ****     void Buzzer_PWM_WriteCompare2(uint8 compare) \
 585:Generated_Source\PSoC5/Buzzer_PWM.c ****                                         
 586:Generated_Source\PSoC5/Buzzer_PWM.c ****     {
 587:Generated_Source\PSoC5/Buzzer_PWM.c ****         #if(Buzzer_PWM_UsingFixedFunction)
 588:Generated_Source\PSoC5/Buzzer_PWM.c ****             CY_SET_REG16(Buzzer_PWM_COMPARE2_LSB_PTR, compare);
 589:Generated_Source\PSoC5/Buzzer_PWM.c ****         #else
 590:Generated_Source\PSoC5/Buzzer_PWM.c ****             CY_SET_REG8(Buzzer_PWM_COMPARE2_LSB_PTR, compare);
 591:Generated_Source\PSoC5/Buzzer_PWM.c ****         #endif /* (Buzzer_PWM_UsingFixedFunction) */
 592:Generated_Source\PSoC5/Buzzer_PWM.c ****     }
 593:Generated_Source\PSoC5/Buzzer_PWM.c **** #endif /* UseOneCompareMode */
 594:Generated_Source\PSoC5/Buzzer_PWM.c **** 
 595:Generated_Source\PSoC5/Buzzer_PWM.c **** #if (Buzzer_PWM_DeadBandUsed)
 596:Generated_Source\PSoC5/Buzzer_PWM.c **** 
 597:Generated_Source\PSoC5/Buzzer_PWM.c **** 
 598:Generated_Source\PSoC5/Buzzer_PWM.c ****     /*******************************************************************************
 599:Generated_Source\PSoC5/Buzzer_PWM.c ****     * Function Name: Buzzer_PWM_WriteDeadTime
 600:Generated_Source\PSoC5/Buzzer_PWM.c ****     ********************************************************************************
 601:Generated_Source\PSoC5/Buzzer_PWM.c ****     *
 602:Generated_Source\PSoC5/Buzzer_PWM.c ****     * Summary:
 603:Generated_Source\PSoC5/Buzzer_PWM.c ****     *  This function writes the dead-band counts to the corresponding register
 604:Generated_Source\PSoC5/Buzzer_PWM.c ****     *
 605:Generated_Source\PSoC5/Buzzer_PWM.c ****     * Parameters:
 606:Generated_Source\PSoC5/Buzzer_PWM.c ****     *  deadtime:  Number of counts for dead time
 607:Generated_Source\PSoC5/Buzzer_PWM.c ****     *
 608:Generated_Source\PSoC5/Buzzer_PWM.c ****     * Return:
 609:Generated_Source\PSoC5/Buzzer_PWM.c ****     *  None
 610:Generated_Source\PSoC5/Buzzer_PWM.c ****     *
 611:Generated_Source\PSoC5/Buzzer_PWM.c ****     *******************************************************************************/
 612:Generated_Source\PSoC5/Buzzer_PWM.c ****     void Buzzer_PWM_WriteDeadTime(uint8 deadtime) 
 613:Generated_Source\PSoC5/Buzzer_PWM.c ****     {
 614:Generated_Source\PSoC5/Buzzer_PWM.c ****         /* If using the Dead Band 1-255 mode then just write the register */
 615:Generated_Source\PSoC5/Buzzer_PWM.c ****         #if(!Buzzer_PWM_DeadBand2_4)
 616:Generated_Source\PSoC5/Buzzer_PWM.c ****             CY_SET_REG8(Buzzer_PWM_DEADBAND_COUNT_PTR, deadtime);
 617:Generated_Source\PSoC5/Buzzer_PWM.c ****         #else
 618:Generated_Source\PSoC5/Buzzer_PWM.c ****             /* Otherwise the data has to be masked and offset */
 619:Generated_Source\PSoC5/Buzzer_PWM.c ****             /* Clear existing data */
 620:Generated_Source\PSoC5/Buzzer_PWM.c ****             Buzzer_PWM_DEADBAND_COUNT &= ((uint8)(~Buzzer_PWM_DEADBAND_COUNT_MASK));
 621:Generated_Source\PSoC5/Buzzer_PWM.c **** 
 622:Generated_Source\PSoC5/Buzzer_PWM.c ****             /* Set new dead time */
 623:Generated_Source\PSoC5/Buzzer_PWM.c ****             #if(Buzzer_PWM_DEADBAND_COUNT_SHIFT)
 624:Generated_Source\PSoC5/Buzzer_PWM.c ****                 Buzzer_PWM_DEADBAND_COUNT |= ((uint8)((uint8)deadtime << Buzzer_PWM_DEADBAND_COUNT_
 625:Generated_Source\PSoC5/Buzzer_PWM.c ****                                                     Buzzer_PWM_DEADBAND_COUNT_MASK;
 626:Generated_Source\PSoC5/Buzzer_PWM.c ****             #else
 627:Generated_Source\PSoC5/Buzzer_PWM.c ****                 Buzzer_PWM_DEADBAND_COUNT |= deadtime & Buzzer_PWM_DEADBAND_COUNT_MASK;
 628:Generated_Source\PSoC5/Buzzer_PWM.c ****             #endif /* (Buzzer_PWM_DEADBAND_COUNT_SHIFT) */
 629:Generated_Source\PSoC5/Buzzer_PWM.c **** 
ARM GAS  C:\Users\NHANPH~1\AppData\Local\Temp\cchDbn02.s 			page 17


 630:Generated_Source\PSoC5/Buzzer_PWM.c ****         #endif /* (!Buzzer_PWM_DeadBand2_4) */
 631:Generated_Source\PSoC5/Buzzer_PWM.c ****     }
 632:Generated_Source\PSoC5/Buzzer_PWM.c **** 
 633:Generated_Source\PSoC5/Buzzer_PWM.c **** 
 634:Generated_Source\PSoC5/Buzzer_PWM.c ****     /*******************************************************************************
 635:Generated_Source\PSoC5/Buzzer_PWM.c ****     * Function Name: Buzzer_PWM_ReadDeadTime
 636:Generated_Source\PSoC5/Buzzer_PWM.c ****     ********************************************************************************
 637:Generated_Source\PSoC5/Buzzer_PWM.c ****     *
 638:Generated_Source\PSoC5/Buzzer_PWM.c ****     * Summary:
 639:Generated_Source\PSoC5/Buzzer_PWM.c ****     *  This function reads the dead-band counts from the corresponding register
 640:Generated_Source\PSoC5/Buzzer_PWM.c ****     *
 641:Generated_Source\PSoC5/Buzzer_PWM.c ****     * Parameters:
 642:Generated_Source\PSoC5/Buzzer_PWM.c ****     *  None
 643:Generated_Source\PSoC5/Buzzer_PWM.c ****     *
 644:Generated_Source\PSoC5/Buzzer_PWM.c ****     * Return:
 645:Generated_Source\PSoC5/Buzzer_PWM.c ****     *  Dead Band Counts
 646:Generated_Source\PSoC5/Buzzer_PWM.c ****     *
 647:Generated_Source\PSoC5/Buzzer_PWM.c ****     *******************************************************************************/
 648:Generated_Source\PSoC5/Buzzer_PWM.c ****     uint8 Buzzer_PWM_ReadDeadTime(void) 
 649:Generated_Source\PSoC5/Buzzer_PWM.c ****     {
 650:Generated_Source\PSoC5/Buzzer_PWM.c ****         /* If using the Dead Band 1-255 mode then just read the register */
 651:Generated_Source\PSoC5/Buzzer_PWM.c ****         #if(!Buzzer_PWM_DeadBand2_4)
 652:Generated_Source\PSoC5/Buzzer_PWM.c ****             return (CY_GET_REG8(Buzzer_PWM_DEADBAND_COUNT_PTR));
 653:Generated_Source\PSoC5/Buzzer_PWM.c ****         #else
 654:Generated_Source\PSoC5/Buzzer_PWM.c **** 
 655:Generated_Source\PSoC5/Buzzer_PWM.c ****             /* Otherwise the data has to be masked and offset */
 656:Generated_Source\PSoC5/Buzzer_PWM.c ****             #if(Buzzer_PWM_DEADBAND_COUNT_SHIFT)
 657:Generated_Source\PSoC5/Buzzer_PWM.c ****                 return ((uint8)(((uint8)(Buzzer_PWM_DEADBAND_COUNT & Buzzer_PWM_DEADBAND_COUNT_MASK
 658:Generated_Source\PSoC5/Buzzer_PWM.c ****                                                                            Buzzer_PWM_DEADBAND_COUN
 659:Generated_Source\PSoC5/Buzzer_PWM.c ****             #else
 660:Generated_Source\PSoC5/Buzzer_PWM.c ****                 return (Buzzer_PWM_DEADBAND_COUNT & Buzzer_PWM_DEADBAND_COUNT_MASK);
 661:Generated_Source\PSoC5/Buzzer_PWM.c ****             #endif /* (Buzzer_PWM_DEADBAND_COUNT_SHIFT) */
 662:Generated_Source\PSoC5/Buzzer_PWM.c ****         #endif /* (!Buzzer_PWM_DeadBand2_4) */
 663:Generated_Source\PSoC5/Buzzer_PWM.c ****     }
 664:Generated_Source\PSoC5/Buzzer_PWM.c **** #endif /* DeadBandUsed */
 665:Generated_Source\PSoC5/Buzzer_PWM.c **** 
 666:Generated_Source\PSoC5/Buzzer_PWM.c **** #if (Buzzer_PWM_UseStatus || Buzzer_PWM_UsingFixedFunction)
 667:Generated_Source\PSoC5/Buzzer_PWM.c **** 
 668:Generated_Source\PSoC5/Buzzer_PWM.c **** 
 669:Generated_Source\PSoC5/Buzzer_PWM.c ****     /*******************************************************************************
 670:Generated_Source\PSoC5/Buzzer_PWM.c ****     * Function Name: Buzzer_PWM_SetInterruptMode
 671:Generated_Source\PSoC5/Buzzer_PWM.c ****     ********************************************************************************
 672:Generated_Source\PSoC5/Buzzer_PWM.c ****     *
 673:Generated_Source\PSoC5/Buzzer_PWM.c ****     * Summary:
 674:Generated_Source\PSoC5/Buzzer_PWM.c ****     *  This function configures the interrupts mask control of theinterrupt
 675:Generated_Source\PSoC5/Buzzer_PWM.c ****     *  source status register.
 676:Generated_Source\PSoC5/Buzzer_PWM.c ****     *
 677:Generated_Source\PSoC5/Buzzer_PWM.c ****     * Parameters:
 678:Generated_Source\PSoC5/Buzzer_PWM.c ****     *  uint8 interruptMode: Bit field containing the interrupt sources enabled
 679:Generated_Source\PSoC5/Buzzer_PWM.c ****     *
 680:Generated_Source\PSoC5/Buzzer_PWM.c ****     * Return:
 681:Generated_Source\PSoC5/Buzzer_PWM.c ****     *  None
 682:Generated_Source\PSoC5/Buzzer_PWM.c ****     *
 683:Generated_Source\PSoC5/Buzzer_PWM.c ****     *******************************************************************************/
 684:Generated_Source\PSoC5/Buzzer_PWM.c ****     void Buzzer_PWM_SetInterruptMode(uint8 interruptMode) 
 685:Generated_Source\PSoC5/Buzzer_PWM.c ****     {
 686:Generated_Source\PSoC5/Buzzer_PWM.c ****         CY_SET_REG8(Buzzer_PWM_STATUS_MASK_PTR, interruptMode);
ARM GAS  C:\Users\NHANPH~1\AppData\Local\Temp\cchDbn02.s 			page 18


 687:Generated_Source\PSoC5/Buzzer_PWM.c ****     }
 688:Generated_Source\PSoC5/Buzzer_PWM.c **** 
 689:Generated_Source\PSoC5/Buzzer_PWM.c **** 
 690:Generated_Source\PSoC5/Buzzer_PWM.c ****     /*******************************************************************************
 691:Generated_Source\PSoC5/Buzzer_PWM.c ****     * Function Name: Buzzer_PWM_ReadStatusRegister
 692:Generated_Source\PSoC5/Buzzer_PWM.c ****     ********************************************************************************
 693:Generated_Source\PSoC5/Buzzer_PWM.c ****     *
 694:Generated_Source\PSoC5/Buzzer_PWM.c ****     * Summary:
 695:Generated_Source\PSoC5/Buzzer_PWM.c ****     *  This function returns the current state of the status register.
 696:Generated_Source\PSoC5/Buzzer_PWM.c ****     *
 697:Generated_Source\PSoC5/Buzzer_PWM.c ****     * Parameters:
 698:Generated_Source\PSoC5/Buzzer_PWM.c ****     *  None
 699:Generated_Source\PSoC5/Buzzer_PWM.c ****     *
 700:Generated_Source\PSoC5/Buzzer_PWM.c ****     * Return:
 701:Generated_Source\PSoC5/Buzzer_PWM.c ****     *  uint8 : Current status register value. The status register bits are:
 702:Generated_Source\PSoC5/Buzzer_PWM.c ****     *  [7:6] : Unused(0)
 703:Generated_Source\PSoC5/Buzzer_PWM.c ****     *  [5]   : Kill event output
 704:Generated_Source\PSoC5/Buzzer_PWM.c ****     *  [4]   : FIFO not empty
 705:Generated_Source\PSoC5/Buzzer_PWM.c ****     *  [3]   : FIFO full
 706:Generated_Source\PSoC5/Buzzer_PWM.c ****     *  [2]   : Terminal count
 707:Generated_Source\PSoC5/Buzzer_PWM.c ****     *  [1]   : Compare output 2
 708:Generated_Source\PSoC5/Buzzer_PWM.c ****     *  [0]   : Compare output 1
 709:Generated_Source\PSoC5/Buzzer_PWM.c ****     *
 710:Generated_Source\PSoC5/Buzzer_PWM.c ****     *******************************************************************************/
 711:Generated_Source\PSoC5/Buzzer_PWM.c ****     uint8 Buzzer_PWM_ReadStatusRegister(void) 
 712:Generated_Source\PSoC5/Buzzer_PWM.c ****     {
 713:Generated_Source\PSoC5/Buzzer_PWM.c ****         return (CY_GET_REG8(Buzzer_PWM_STATUS_PTR));
 714:Generated_Source\PSoC5/Buzzer_PWM.c ****     }
 715:Generated_Source\PSoC5/Buzzer_PWM.c **** 
 716:Generated_Source\PSoC5/Buzzer_PWM.c **** #endif /* (Buzzer_PWM_UseStatus || Buzzer_PWM_UsingFixedFunction) */
 717:Generated_Source\PSoC5/Buzzer_PWM.c **** 
 718:Generated_Source\PSoC5/Buzzer_PWM.c **** 
 719:Generated_Source\PSoC5/Buzzer_PWM.c **** #if (Buzzer_PWM_UseControl)
 720:Generated_Source\PSoC5/Buzzer_PWM.c **** 
 721:Generated_Source\PSoC5/Buzzer_PWM.c **** 
 722:Generated_Source\PSoC5/Buzzer_PWM.c ****     /*******************************************************************************
 723:Generated_Source\PSoC5/Buzzer_PWM.c ****     * Function Name: Buzzer_PWM_ReadControlRegister
 724:Generated_Source\PSoC5/Buzzer_PWM.c ****     ********************************************************************************
 725:Generated_Source\PSoC5/Buzzer_PWM.c ****     *
 726:Generated_Source\PSoC5/Buzzer_PWM.c ****     * Summary:
 727:Generated_Source\PSoC5/Buzzer_PWM.c ****     *  Returns the current state of the control register. This API is available
 728:Generated_Source\PSoC5/Buzzer_PWM.c ****     *  only if the control register is not removed.
 729:Generated_Source\PSoC5/Buzzer_PWM.c ****     *
 730:Generated_Source\PSoC5/Buzzer_PWM.c ****     * Parameters:
 731:Generated_Source\PSoC5/Buzzer_PWM.c ****     *  None
 732:Generated_Source\PSoC5/Buzzer_PWM.c ****     *
 733:Generated_Source\PSoC5/Buzzer_PWM.c ****     * Return:
 734:Generated_Source\PSoC5/Buzzer_PWM.c ****     *  uint8 : Current control register value
 735:Generated_Source\PSoC5/Buzzer_PWM.c ****     *
 736:Generated_Source\PSoC5/Buzzer_PWM.c ****     *******************************************************************************/
 737:Generated_Source\PSoC5/Buzzer_PWM.c ****     uint8 Buzzer_PWM_ReadControlRegister(void) 
 738:Generated_Source\PSoC5/Buzzer_PWM.c ****     {
 272              		.loc 1 738 0
 273              		.cfi_startproc
 274              		@ args = 0, pretend = 0, frame = 0
 275              		@ frame_needed = 0, uses_anonymous_args = 0
 276              		@ link register save eliminated.
ARM GAS  C:\Users\NHANPH~1\AppData\Local\Temp\cchDbn02.s 			page 19


 739:Generated_Source\PSoC5/Buzzer_PWM.c ****         uint8 result;
 740:Generated_Source\PSoC5/Buzzer_PWM.c **** 
 741:Generated_Source\PSoC5/Buzzer_PWM.c ****         result = CY_GET_REG8(Buzzer_PWM_CONTROL_PTR);
 277              		.loc 1 741 0
 278 0000 014B     		ldr	r3, .L29
 279 0002 1878     		ldrb	r0, [r3]	@ zero_extendqisi2
 280              	.LVL10:
 742:Generated_Source\PSoC5/Buzzer_PWM.c ****         return (result);
 743:Generated_Source\PSoC5/Buzzer_PWM.c ****     }
 281              		.loc 1 743 0
 282 0004 7047     		bx	lr
 283              	.L30:
 284 0006 00BF     		.align	2
 285              	.L29:
 286 0008 76650040 		.word	1073767798
 287              		.cfi_endproc
 288              	.LFE8:
 289              		.size	Buzzer_PWM_ReadControlRegister, .-Buzzer_PWM_ReadControlRegister
 290              		.section	.text.Buzzer_PWM_WriteControlRegister,"ax",%progbits
 291              		.align	2
 292              		.global	Buzzer_PWM_WriteControlRegister
 293              		.thumb
 294              		.thumb_func
 295              		.type	Buzzer_PWM_WriteControlRegister, %function
 296              	Buzzer_PWM_WriteControlRegister:
 297              	.LFB9:
 744:Generated_Source\PSoC5/Buzzer_PWM.c **** 
 745:Generated_Source\PSoC5/Buzzer_PWM.c **** 
 746:Generated_Source\PSoC5/Buzzer_PWM.c ****     /*******************************************************************************
 747:Generated_Source\PSoC5/Buzzer_PWM.c ****     * Function Name: Buzzer_PWM_WriteControlRegister
 748:Generated_Source\PSoC5/Buzzer_PWM.c ****     ********************************************************************************
 749:Generated_Source\PSoC5/Buzzer_PWM.c ****     *
 750:Generated_Source\PSoC5/Buzzer_PWM.c ****     * Summary:
 751:Generated_Source\PSoC5/Buzzer_PWM.c ****     *  Sets the bit field of the control register. This API is available only if
 752:Generated_Source\PSoC5/Buzzer_PWM.c ****     *  the control register is not removed.
 753:Generated_Source\PSoC5/Buzzer_PWM.c ****     *
 754:Generated_Source\PSoC5/Buzzer_PWM.c ****     * Parameters:
 755:Generated_Source\PSoC5/Buzzer_PWM.c ****     *  uint8 control: Control register bit field, The status register bits are:
 756:Generated_Source\PSoC5/Buzzer_PWM.c ****     *  [7]   : PWM Enable
 757:Generated_Source\PSoC5/Buzzer_PWM.c ****     *  [6]   : Reset
 758:Generated_Source\PSoC5/Buzzer_PWM.c ****     *  [5:3] : Compare Mode2
 759:Generated_Source\PSoC5/Buzzer_PWM.c ****     *  [2:0] : Compare Mode2
 760:Generated_Source\PSoC5/Buzzer_PWM.c ****     *
 761:Generated_Source\PSoC5/Buzzer_PWM.c ****     * Return:
 762:Generated_Source\PSoC5/Buzzer_PWM.c ****     *  None
 763:Generated_Source\PSoC5/Buzzer_PWM.c ****     *
 764:Generated_Source\PSoC5/Buzzer_PWM.c ****     *******************************************************************************/
 765:Generated_Source\PSoC5/Buzzer_PWM.c ****     void Buzzer_PWM_WriteControlRegister(uint8 control) 
 766:Generated_Source\PSoC5/Buzzer_PWM.c ****     {
 298              		.loc 1 766 0
 299              		.cfi_startproc
 300              		@ args = 0, pretend = 0, frame = 0
 301              		@ frame_needed = 0, uses_anonymous_args = 0
 302              		@ link register save eliminated.
 303              	.LVL11:
 767:Generated_Source\PSoC5/Buzzer_PWM.c ****         CY_SET_REG8(Buzzer_PWM_CONTROL_PTR, control);
 304              		.loc 1 767 0
ARM GAS  C:\Users\NHANPH~1\AppData\Local\Temp\cchDbn02.s 			page 20


 305 0000 014B     		ldr	r3, .L32
 306 0002 1870     		strb	r0, [r3]
 307 0004 7047     		bx	lr
 308              	.L33:
 309 0006 00BF     		.align	2
 310              	.L32:
 311 0008 76650040 		.word	1073767798
 312              		.cfi_endproc
 313              	.LFE9:
 314              		.size	Buzzer_PWM_WriteControlRegister, .-Buzzer_PWM_WriteControlRegister
 315              		.section	.text.Buzzer_PWM_ReadCapture,"ax",%progbits
 316              		.align	2
 317              		.global	Buzzer_PWM_ReadCapture
 318              		.thumb
 319              		.thumb_func
 320              		.type	Buzzer_PWM_ReadCapture, %function
 321              	Buzzer_PWM_ReadCapture:
 322              	.LFB10:
 768:Generated_Source\PSoC5/Buzzer_PWM.c ****     }
 769:Generated_Source\PSoC5/Buzzer_PWM.c **** 
 770:Generated_Source\PSoC5/Buzzer_PWM.c **** #endif /* (Buzzer_PWM_UseControl) */
 771:Generated_Source\PSoC5/Buzzer_PWM.c **** 
 772:Generated_Source\PSoC5/Buzzer_PWM.c **** 
 773:Generated_Source\PSoC5/Buzzer_PWM.c **** #if (!Buzzer_PWM_UsingFixedFunction)
 774:Generated_Source\PSoC5/Buzzer_PWM.c **** 
 775:Generated_Source\PSoC5/Buzzer_PWM.c **** 
 776:Generated_Source\PSoC5/Buzzer_PWM.c ****     /*******************************************************************************
 777:Generated_Source\PSoC5/Buzzer_PWM.c ****     * Function Name: Buzzer_PWM_ReadCapture
 778:Generated_Source\PSoC5/Buzzer_PWM.c ****     ********************************************************************************
 779:Generated_Source\PSoC5/Buzzer_PWM.c ****     *
 780:Generated_Source\PSoC5/Buzzer_PWM.c ****     * Summary:
 781:Generated_Source\PSoC5/Buzzer_PWM.c ****     *  Reads the capture value from the capture FIFO.
 782:Generated_Source\PSoC5/Buzzer_PWM.c ****     *
 783:Generated_Source\PSoC5/Buzzer_PWM.c ****     * Parameters:
 784:Generated_Source\PSoC5/Buzzer_PWM.c ****     *  None
 785:Generated_Source\PSoC5/Buzzer_PWM.c ****     *
 786:Generated_Source\PSoC5/Buzzer_PWM.c ****     * Return:
 787:Generated_Source\PSoC5/Buzzer_PWM.c ****     *  uint8/uint16: The current capture value
 788:Generated_Source\PSoC5/Buzzer_PWM.c ****     *
 789:Generated_Source\PSoC5/Buzzer_PWM.c ****     *******************************************************************************/
 790:Generated_Source\PSoC5/Buzzer_PWM.c ****     uint8 Buzzer_PWM_ReadCapture(void) 
 791:Generated_Source\PSoC5/Buzzer_PWM.c ****     {
 323              		.loc 1 791 0
 324              		.cfi_startproc
 325              		@ args = 0, pretend = 0, frame = 0
 326              		@ frame_needed = 0, uses_anonymous_args = 0
 327              		@ link register save eliminated.
 792:Generated_Source\PSoC5/Buzzer_PWM.c ****         return (CY_GET_REG8(Buzzer_PWM_CAPTURE_LSB_PTR));
 328              		.loc 1 792 0
 329 0000 014B     		ldr	r3, .L35
 330 0002 1878     		ldrb	r0, [r3]	@ zero_extendqisi2
 793:Generated_Source\PSoC5/Buzzer_PWM.c ****     }
 331              		.loc 1 793 0
 332 0004 7047     		bx	lr
 333              	.L36:
 334 0006 00BF     		.align	2
 335              	.L35:
ARM GAS  C:\Users\NHANPH~1\AppData\Local\Temp\cchDbn02.s 			page 21


 336 0008 56650040 		.word	1073767766
 337              		.cfi_endproc
 338              	.LFE10:
 339              		.size	Buzzer_PWM_ReadCapture, .-Buzzer_PWM_ReadCapture
 340              		.section	.text.Buzzer_PWM_ReadCompare,"ax",%progbits
 341              		.align	2
 342              		.global	Buzzer_PWM_ReadCompare
 343              		.thumb
 344              		.thumb_func
 345              		.type	Buzzer_PWM_ReadCompare, %function
 346              	Buzzer_PWM_ReadCompare:
 347              	.LFB11:
 794:Generated_Source\PSoC5/Buzzer_PWM.c **** 
 795:Generated_Source\PSoC5/Buzzer_PWM.c **** #endif /* (!Buzzer_PWM_UsingFixedFunction) */
 796:Generated_Source\PSoC5/Buzzer_PWM.c **** 
 797:Generated_Source\PSoC5/Buzzer_PWM.c **** 
 798:Generated_Source\PSoC5/Buzzer_PWM.c **** #if (Buzzer_PWM_UseOneCompareMode)
 799:Generated_Source\PSoC5/Buzzer_PWM.c **** 
 800:Generated_Source\PSoC5/Buzzer_PWM.c **** 
 801:Generated_Source\PSoC5/Buzzer_PWM.c ****     /*******************************************************************************
 802:Generated_Source\PSoC5/Buzzer_PWM.c ****     * Function Name: Buzzer_PWM_ReadCompare
 803:Generated_Source\PSoC5/Buzzer_PWM.c ****     ********************************************************************************
 804:Generated_Source\PSoC5/Buzzer_PWM.c ****     *
 805:Generated_Source\PSoC5/Buzzer_PWM.c ****     * Summary:
 806:Generated_Source\PSoC5/Buzzer_PWM.c ****     *  Reads the compare value for the compare output when the PWM Mode parameter is
 807:Generated_Source\PSoC5/Buzzer_PWM.c ****     *  set to Dither mode, Center Aligned mode, or One Output mode.
 808:Generated_Source\PSoC5/Buzzer_PWM.c ****     *
 809:Generated_Source\PSoC5/Buzzer_PWM.c ****     * Parameters:
 810:Generated_Source\PSoC5/Buzzer_PWM.c ****     *  None
 811:Generated_Source\PSoC5/Buzzer_PWM.c ****     *
 812:Generated_Source\PSoC5/Buzzer_PWM.c ****     * Return:
 813:Generated_Source\PSoC5/Buzzer_PWM.c ****     *  uint8/uint16: Current compare value
 814:Generated_Source\PSoC5/Buzzer_PWM.c ****     *
 815:Generated_Source\PSoC5/Buzzer_PWM.c ****     *******************************************************************************/
 816:Generated_Source\PSoC5/Buzzer_PWM.c ****     uint8 Buzzer_PWM_ReadCompare(void) 
 817:Generated_Source\PSoC5/Buzzer_PWM.c ****     {
 348              		.loc 1 817 0
 349              		.cfi_startproc
 350              		@ args = 0, pretend = 0, frame = 0
 351              		@ frame_needed = 0, uses_anonymous_args = 0
 352              		@ link register save eliminated.
 818:Generated_Source\PSoC5/Buzzer_PWM.c ****         #if(Buzzer_PWM_UsingFixedFunction)
 819:Generated_Source\PSoC5/Buzzer_PWM.c ****             return ((uint8)CY_GET_REG16(Buzzer_PWM_COMPARE1_LSB_PTR));
 820:Generated_Source\PSoC5/Buzzer_PWM.c ****         #else
 821:Generated_Source\PSoC5/Buzzer_PWM.c ****             return (CY_GET_REG8(Buzzer_PWM_COMPARE1_LSB_PTR));
 353              		.loc 1 821 0
 354 0000 014B     		ldr	r3, .L38
 355 0002 1878     		ldrb	r0, [r3]	@ zero_extendqisi2
 822:Generated_Source\PSoC5/Buzzer_PWM.c ****         #endif /* (Buzzer_PWM_UsingFixedFunction) */
 823:Generated_Source\PSoC5/Buzzer_PWM.c ****     }
 356              		.loc 1 823 0
 357 0004 7047     		bx	lr
 358              	.L39:
 359 0006 00BF     		.align	2
 360              	.L38:
 361 0008 26650040 		.word	1073767718
 362              		.cfi_endproc
ARM GAS  C:\Users\NHANPH~1\AppData\Local\Temp\cchDbn02.s 			page 22


 363              	.LFE11:
 364              		.size	Buzzer_PWM_ReadCompare, .-Buzzer_PWM_ReadCompare
 365              		.section	.text.Buzzer_PWM_ReadPeriod,"ax",%progbits
 366              		.align	2
 367              		.global	Buzzer_PWM_ReadPeriod
 368              		.thumb
 369              		.thumb_func
 370              		.type	Buzzer_PWM_ReadPeriod, %function
 371              	Buzzer_PWM_ReadPeriod:
 372              	.LFB12:
 824:Generated_Source\PSoC5/Buzzer_PWM.c **** 
 825:Generated_Source\PSoC5/Buzzer_PWM.c **** #else
 826:Generated_Source\PSoC5/Buzzer_PWM.c **** 
 827:Generated_Source\PSoC5/Buzzer_PWM.c **** 
 828:Generated_Source\PSoC5/Buzzer_PWM.c ****     /*******************************************************************************
 829:Generated_Source\PSoC5/Buzzer_PWM.c ****     * Function Name: Buzzer_PWM_ReadCompare1
 830:Generated_Source\PSoC5/Buzzer_PWM.c ****     ********************************************************************************
 831:Generated_Source\PSoC5/Buzzer_PWM.c ****     *
 832:Generated_Source\PSoC5/Buzzer_PWM.c ****     * Summary:
 833:Generated_Source\PSoC5/Buzzer_PWM.c ****     *  Reads the compare value for the compare1 output.
 834:Generated_Source\PSoC5/Buzzer_PWM.c ****     *
 835:Generated_Source\PSoC5/Buzzer_PWM.c ****     * Parameters:
 836:Generated_Source\PSoC5/Buzzer_PWM.c ****     *  None
 837:Generated_Source\PSoC5/Buzzer_PWM.c ****     *
 838:Generated_Source\PSoC5/Buzzer_PWM.c ****     * Return:
 839:Generated_Source\PSoC5/Buzzer_PWM.c ****     *  uint8/uint16: Current compare value.
 840:Generated_Source\PSoC5/Buzzer_PWM.c ****     *
 841:Generated_Source\PSoC5/Buzzer_PWM.c ****     *******************************************************************************/
 842:Generated_Source\PSoC5/Buzzer_PWM.c ****     uint8 Buzzer_PWM_ReadCompare1(void) 
 843:Generated_Source\PSoC5/Buzzer_PWM.c ****     {
 844:Generated_Source\PSoC5/Buzzer_PWM.c ****         return (CY_GET_REG8(Buzzer_PWM_COMPARE1_LSB_PTR));
 845:Generated_Source\PSoC5/Buzzer_PWM.c ****     }
 846:Generated_Source\PSoC5/Buzzer_PWM.c **** 
 847:Generated_Source\PSoC5/Buzzer_PWM.c **** 
 848:Generated_Source\PSoC5/Buzzer_PWM.c ****     /*******************************************************************************
 849:Generated_Source\PSoC5/Buzzer_PWM.c ****     * Function Name: Buzzer_PWM_ReadCompare2
 850:Generated_Source\PSoC5/Buzzer_PWM.c ****     ********************************************************************************
 851:Generated_Source\PSoC5/Buzzer_PWM.c ****     *
 852:Generated_Source\PSoC5/Buzzer_PWM.c ****     * Summary:
 853:Generated_Source\PSoC5/Buzzer_PWM.c ****     *  Reads the compare value for the compare2 output.
 854:Generated_Source\PSoC5/Buzzer_PWM.c ****     *
 855:Generated_Source\PSoC5/Buzzer_PWM.c ****     * Parameters:
 856:Generated_Source\PSoC5/Buzzer_PWM.c ****     *  None
 857:Generated_Source\PSoC5/Buzzer_PWM.c ****     *
 858:Generated_Source\PSoC5/Buzzer_PWM.c ****     * Return:
 859:Generated_Source\PSoC5/Buzzer_PWM.c ****     *  uint8/uint16: Current compare value.
 860:Generated_Source\PSoC5/Buzzer_PWM.c ****     *
 861:Generated_Source\PSoC5/Buzzer_PWM.c ****     *******************************************************************************/
 862:Generated_Source\PSoC5/Buzzer_PWM.c ****     uint8 Buzzer_PWM_ReadCompare2(void) 
 863:Generated_Source\PSoC5/Buzzer_PWM.c ****     {
 864:Generated_Source\PSoC5/Buzzer_PWM.c ****         return (CY_GET_REG8(Buzzer_PWM_COMPARE2_LSB_PTR));
 865:Generated_Source\PSoC5/Buzzer_PWM.c ****     }
 866:Generated_Source\PSoC5/Buzzer_PWM.c **** 
 867:Generated_Source\PSoC5/Buzzer_PWM.c **** #endif /* (Buzzer_PWM_UseOneCompareMode) */
 868:Generated_Source\PSoC5/Buzzer_PWM.c **** 
 869:Generated_Source\PSoC5/Buzzer_PWM.c **** 
 870:Generated_Source\PSoC5/Buzzer_PWM.c **** /*******************************************************************************
ARM GAS  C:\Users\NHANPH~1\AppData\Local\Temp\cchDbn02.s 			page 23


 871:Generated_Source\PSoC5/Buzzer_PWM.c **** * Function Name: Buzzer_PWM_ReadPeriod
 872:Generated_Source\PSoC5/Buzzer_PWM.c **** ********************************************************************************
 873:Generated_Source\PSoC5/Buzzer_PWM.c **** *
 874:Generated_Source\PSoC5/Buzzer_PWM.c **** * Summary:
 875:Generated_Source\PSoC5/Buzzer_PWM.c **** *  Reads the period value used by the PWM hardware.
 876:Generated_Source\PSoC5/Buzzer_PWM.c **** *
 877:Generated_Source\PSoC5/Buzzer_PWM.c **** * Parameters:
 878:Generated_Source\PSoC5/Buzzer_PWM.c **** *  None
 879:Generated_Source\PSoC5/Buzzer_PWM.c **** *
 880:Generated_Source\PSoC5/Buzzer_PWM.c **** * Return:
 881:Generated_Source\PSoC5/Buzzer_PWM.c **** *  uint8/16: Period value
 882:Generated_Source\PSoC5/Buzzer_PWM.c **** *
 883:Generated_Source\PSoC5/Buzzer_PWM.c **** *******************************************************************************/
 884:Generated_Source\PSoC5/Buzzer_PWM.c **** uint8 Buzzer_PWM_ReadPeriod(void) 
 885:Generated_Source\PSoC5/Buzzer_PWM.c **** {
 373              		.loc 1 885 0
 374              		.cfi_startproc
 375              		@ args = 0, pretend = 0, frame = 0
 376              		@ frame_needed = 0, uses_anonymous_args = 0
 377              		@ link register save eliminated.
 886:Generated_Source\PSoC5/Buzzer_PWM.c ****     #if(Buzzer_PWM_UsingFixedFunction)
 887:Generated_Source\PSoC5/Buzzer_PWM.c ****         return ((uint8)CY_GET_REG16(Buzzer_PWM_PERIOD_LSB_PTR));
 888:Generated_Source\PSoC5/Buzzer_PWM.c ****     #else
 889:Generated_Source\PSoC5/Buzzer_PWM.c ****         return (CY_GET_REG8(Buzzer_PWM_PERIOD_LSB_PTR));
 378              		.loc 1 889 0
 379 0000 014B     		ldr	r3, .L41
 380 0002 1878     		ldrb	r0, [r3]	@ zero_extendqisi2
 890:Generated_Source\PSoC5/Buzzer_PWM.c ****     #endif /* (Buzzer_PWM_UsingFixedFunction) */
 891:Generated_Source\PSoC5/Buzzer_PWM.c **** }
 381              		.loc 1 891 0
 382 0004 7047     		bx	lr
 383              	.L42:
 384 0006 00BF     		.align	2
 385              	.L41:
 386 0008 46650040 		.word	1073767750
 387              		.cfi_endproc
 388              	.LFE12:
 389              		.size	Buzzer_PWM_ReadPeriod, .-Buzzer_PWM_ReadPeriod
 390              		.global	Buzzer_PWM_initVar
 391              		.bss
 392              		.set	.LANCHOR0,. + 0
 393              		.type	Buzzer_PWM_initVar, %object
 394              		.size	Buzzer_PWM_initVar, 1
 395              	Buzzer_PWM_initVar:
 396 0000 00       		.space	1
 397              		.text
 398              	.Letext0:
 399              		.file 2 "Generated_Source\\PSoC5\\cytypes.h"