ARM GAS  C:\Users\NHANPH~1\AppData\Local\Temp\cc6hzIpJ.s 			page 1


   1              		.syntax unified
   2              		.cpu cortex-m3
   3              		.fpu softvfp
   4              		.eabi_attribute 20, 1
   5              		.eabi_attribute 21, 1
   6              		.eabi_attribute 23, 3
   7              		.eabi_attribute 24, 1
   8              		.eabi_attribute 25, 1
   9              		.eabi_attribute 26, 1
  10              		.eabi_attribute 30, 1
  11              		.eabi_attribute 34, 1
  12              		.eabi_attribute 18, 4
  13              		.thumb
  14              		.file	"I2C_made.c"
  15              		.text
  16              	.Ltext0:
  17              		.cfi_sections	.debug_frame
  18              		.section	.text.I2C_write,"ax",%progbits
  19              		.align	2
  20              		.global	I2C_write
  21              		.thumb
  22              		.thumb_func
  23              		.type	I2C_write, %function
  24              	I2C_write:
  25              	.LFB63:
  26              		.file 1 "ZumoLibrary\\I2C_made.c"
   1:ZumoLibrary/I2C_made.c **** /**
   2:ZumoLibrary/I2C_made.c ****  * @file    I2C_made.c
   3:ZumoLibrary/I2C_made.c ****  * @brief   Basic methods for I2C communication. For more details, please refer to I2C_made.h file.
   4:ZumoLibrary/I2C_made.c ****  * @details 
   5:ZumoLibrary/I2C_made.c **** */
   6:ZumoLibrary/I2C_made.c **** #include "I2C_made.h"
   7:ZumoLibrary/I2C_made.c **** 
   8:ZumoLibrary/I2C_made.c **** 
   9:ZumoLibrary/I2C_made.c **** /**
  10:ZumoLibrary/I2C_made.c **** * @brief    Write function of I2C communication
  11:ZumoLibrary/I2C_made.c **** * @details  writing value to slave register by I2C communication
  12:ZumoLibrary/I2C_made.c **** * @param    uint8 device_addr : Slave Device address
  13:ZumoLibrary/I2C_made.c **** * @param    uint8 Reg : register address
  14:ZumoLibrary/I2C_made.c **** * @param    uint8 value : value to write
  15:ZumoLibrary/I2C_made.c **** */
  16:ZumoLibrary/I2C_made.c **** void I2C_write(uint8 device_addr, uint8 Reg, uint8 value)             // Gyroscope: you need to cha
  17:ZumoLibrary/I2C_made.c **** {
  27              		.loc 1 17 0
  28              		.cfi_startproc
  29              		@ args = 0, pretend = 0, frame = 8
  30              		@ frame_needed = 0, uses_anonymous_args = 0
  31              	.LVL0:
  32 0000 10B5     		push	{r4, lr}
  33              		.cfi_def_cfa_offset 8
  34              		.cfi_offset 4, -8
  35              		.cfi_offset 14, -4
  36 0002 82B0     		sub	sp, sp, #8
  37              		.cfi_def_cfa_offset 16
  38 0004 0446     		mov	r4, r0
  18:ZumoLibrary/I2C_made.c ****     uint8 write_buf[2] = {};
  19:ZumoLibrary/I2C_made.c ****     write_buf[0] = Reg;                //register address that you want to write
ARM GAS  C:\Users\NHANPH~1\AppData\Local\Temp\cc6hzIpJ.s 			page 2


  39              		.loc 1 19 0
  40 0006 8DF80410 		strb	r1, [sp, #4]
  20:ZumoLibrary/I2C_made.c ****     write_buf[1] = value;                //value that you want to write to register
  41              		.loc 1 20 0
  42 000a 8DF80520 		strb	r2, [sp, #5]
  21:ZumoLibrary/I2C_made.c ****     
  22:ZumoLibrary/I2C_made.c ****     I2C_MasterClearStatus();
  43              		.loc 1 22 0
  44 000e FFF7FEFF 		bl	I2C_MasterClearStatus
  45              	.LVL1:
  23:ZumoLibrary/I2C_made.c ****     I2C_MasterWriteBuf(device_addr, write_buf, 2, I2C_MODE_COMPLETE_XFER);
  46              		.loc 1 23 0
  47 0012 2046     		mov	r0, r4
  48 0014 01A9     		add	r1, sp, #4
  49 0016 0222     		movs	r2, #2
  50 0018 0023     		movs	r3, #0
  51 001a FFF7FEFF 		bl	I2C_MasterWriteBuf
  52              	.LVL2:
  53              	.L2:
  24:ZumoLibrary/I2C_made.c ****     while(((I2C_MasterStatus()) & I2C_MSTAT_WR_CMPLT) == 0);
  54              		.loc 1 24 0 discriminator 1
  55 001e FFF7FEFF 		bl	I2C_MasterStatus
  56              	.LVL3:
  57 0022 10F0020F 		tst	r0, #2
  58 0026 FAD0     		beq	.L2
  25:ZumoLibrary/I2C_made.c ****     
  26:ZumoLibrary/I2C_made.c ****     return;
  27:ZumoLibrary/I2C_made.c **** }
  59              		.loc 1 27 0
  60 0028 02B0     		add	sp, sp, #8
  61              		.cfi_def_cfa_offset 8
  62              		@ sp needed
  63 002a 10BD     		pop	{r4, pc}
  64              		.cfi_endproc
  65              	.LFE63:
  66              		.size	I2C_write, .-I2C_write
  67              		.section	.text.I2C_read,"ax",%progbits
  68              		.align	2
  69              		.global	I2C_read
  70              		.thumb
  71              		.thumb_func
  72              		.type	I2C_read, %function
  73              	I2C_read:
  74              	.LFB64:
  28:ZumoLibrary/I2C_made.c **** 
  29:ZumoLibrary/I2C_made.c **** 
  30:ZumoLibrary/I2C_made.c **** /**
  31:ZumoLibrary/I2C_made.c **** * @brief    Read function of I2C communication
  32:ZumoLibrary/I2C_made.c **** * @details  read value from slave register by I2C communication
  33:ZumoLibrary/I2C_made.c **** * @param    uint8 device_addr : Slave Device address
  34:ZumoLibrary/I2C_made.c **** * @param    uint8 Reg : register address
  35:ZumoLibrary/I2C_made.c **** */
  36:ZumoLibrary/I2C_made.c **** uint8 I2C_read(uint8 device_addr, uint8 Reg) 
  37:ZumoLibrary/I2C_made.c **** {
  75              		.loc 1 37 0
  76              		.cfi_startproc
  77              		@ args = 0, pretend = 0, frame = 8
ARM GAS  C:\Users\NHANPH~1\AppData\Local\Temp\cc6hzIpJ.s 			page 3


  78              		@ frame_needed = 0, uses_anonymous_args = 0
  79              	.LVL4:
  80 0000 30B5     		push	{r4, r5, lr}
  81              		.cfi_def_cfa_offset 12
  82              		.cfi_offset 4, -12
  83              		.cfi_offset 5, -8
  84              		.cfi_offset 14, -4
  85 0002 83B0     		sub	sp, sp, #12
  86              		.cfi_def_cfa_offset 24
  87 0004 0446     		mov	r4, r0
  38:ZumoLibrary/I2C_made.c ****    
  39:ZumoLibrary/I2C_made.c ****     uint8 write_buf[1] = {};
  88              		.loc 1 39 0
  89 0006 0025     		movs	r5, #0
  40:ZumoLibrary/I2C_made.c ****     write_buf[0] = Reg;
  90              		.loc 1 40 0
  91 0008 8DF80410 		strb	r1, [sp, #4]
  41:ZumoLibrary/I2C_made.c ****     
  42:ZumoLibrary/I2C_made.c ****     uint8 read_buf[1] = {};
  92              		.loc 1 42 0
  93 000c 8DF80050 		strb	r5, [sp]
  43:ZumoLibrary/I2C_made.c ****     
  44:ZumoLibrary/I2C_made.c ****     I2C_MasterClearStatus();
  94              		.loc 1 44 0
  95 0010 FFF7FEFF 		bl	I2C_MasterClearStatus
  96              	.LVL5:
  45:ZumoLibrary/I2C_made.c ****     CyDelay(100);
  97              		.loc 1 45 0
  98 0014 6420     		movs	r0, #100
  99 0016 FFF7FEFF 		bl	CyDelay
 100              	.LVL6:
  46:ZumoLibrary/I2C_made.c ****     I2C_MasterWriteBuf(device_addr, write_buf, 1, I2C_MODE_COMPLETE_XFER);
 101              		.loc 1 46 0
 102 001a 2046     		mov	r0, r4
 103 001c 01A9     		add	r1, sp, #4
 104 001e 0122     		movs	r2, #1
 105 0020 2B46     		mov	r3, r5
 106 0022 FFF7FEFF 		bl	I2C_MasterWriteBuf
 107              	.LVL7:
 108              	.L5:
  47:ZumoLibrary/I2C_made.c ****     while((I2C_MasterStatus() & I2C_MSTAT_WR_CMPLT) == 0);
 109              		.loc 1 47 0 discriminator 1
 110 0026 FFF7FEFF 		bl	I2C_MasterStatus
 111              	.LVL8:
 112 002a 10F0020F 		tst	r0, #2
 113 002e FAD0     		beq	.L5
  48:ZumoLibrary/I2C_made.c ****     CyDelay(50);
 114              		.loc 1 48 0
 115 0030 3220     		movs	r0, #50
 116 0032 FFF7FEFF 		bl	CyDelay
 117              	.LVL9:
  49:ZumoLibrary/I2C_made.c ****     I2C_MasterClearStatus();
 118              		.loc 1 49 0
 119 0036 FFF7FEFF 		bl	I2C_MasterClearStatus
 120              	.LVL10:
  50:ZumoLibrary/I2C_made.c ****     I2C_MasterReadBuf(device_addr, read_buf, 1, I2C_MODE_COMPLETE_XFER);
 121              		.loc 1 50 0
ARM GAS  C:\Users\NHANPH~1\AppData\Local\Temp\cc6hzIpJ.s 			page 4


 122 003a 2046     		mov	r0, r4
 123 003c 6946     		mov	r1, sp
 124 003e 0122     		movs	r2, #1
 125 0040 0023     		movs	r3, #0
 126 0042 FFF7FEFF 		bl	I2C_MasterReadBuf
 127              	.LVL11:
 128              	.L6:
  51:ZumoLibrary/I2C_made.c ****     while((I2C_MasterStatus() & I2C_MSTAT_RD_CMPLT) == 0);
 129              		.loc 1 51 0 discriminator 1
 130 0046 FFF7FEFF 		bl	I2C_MasterStatus
 131              	.LVL12:
 132 004a 10F0010F 		tst	r0, #1
 133 004e FAD0     		beq	.L6
  52:ZumoLibrary/I2C_made.c ****    
  53:ZumoLibrary/I2C_made.c ****     return read_buf[0];
  54:ZumoLibrary/I2C_made.c **** }
 134              		.loc 1 54 0
 135 0050 9DF80000 		ldrb	r0, [sp]	@ zero_extendqisi2
 136 0054 03B0     		add	sp, sp, #12
 137              		.cfi_def_cfa_offset 12
 138              		@ sp needed
 139 0056 30BD     		pop	{r4, r5, pc}
 140              		.cfi_endproc
 141              	.LFE64:
 142              		.size	I2C_read, .-I2C_read
 143              		.section	.text.convert_raw,"ax",%progbits
 144              		.align	2
 145              		.global	convert_raw
 146              		.thumb
 147              		.thumb_func
 148              		.type	convert_raw, %function
 149              	convert_raw:
 150              	.LFB65:
  55:ZumoLibrary/I2C_made.c **** 
  56:ZumoLibrary/I2C_made.c **** 
  57:ZumoLibrary/I2C_made.c **** /**
  58:ZumoLibrary/I2C_made.c **** * @brief    Combining 8 bits of low and high outputs to 16 bits used for sensor value
  59:ZumoLibrary/I2C_made.c **** * @details  writing value to slave register by I2C communication
  60:ZumoLibrary/I2C_made.c **** * @param    uint8 L : lower 8bits out of 16 bits output
  61:ZumoLibrary/I2C_made.c **** * @param    uint8 H : higher 8bits out of 16 bits output
  62:ZumoLibrary/I2C_made.c **** */
  63:ZumoLibrary/I2C_made.c **** uint16 convert_raw(uint8 L, uint8 H)
  64:ZumoLibrary/I2C_made.c **** {
 151              		.loc 1 64 0
 152              		.cfi_startproc
 153              		@ args = 0, pretend = 0, frame = 0
 154              		@ frame_needed = 0, uses_anonymous_args = 0
 155              		@ link register save eliminated.
 156              	.LVL13:
  65:ZumoLibrary/I2C_made.c ****     uint16 raw;
  66:ZumoLibrary/I2C_made.c ****     raw = (int16)(L | H << 8);      //shift High bits and combine with Low bits to make 16 bits val
  67:ZumoLibrary/I2C_made.c ****     
  68:ZumoLibrary/I2C_made.c ****     return raw;
  69:ZumoLibrary/I2C_made.c **** }
 157              		.loc 1 69 0
 158 0000 40EA0120 		orr	r0, r0, r1, lsl #8
 159              	.LVL14:
ARM GAS  C:\Users\NHANPH~1\AppData\Local\Temp\cc6hzIpJ.s 			page 5


 160 0004 7047     		bx	lr
 161              		.cfi_endproc
 162              	.LFE65:
 163              		.size	convert_raw, .-convert_raw
 164 0006 00BF     		.text
 165              	.Letext0:
 166              		.file 2 "c:\\program files (x86)\\cypress\\psoc creator\\4.0\\psoc creator\\import\\gnu\\arm\\4.9.
 167              		.file 3 "c:\\program files (x86)\\cypress\\psoc creator\\4.0\\psoc creator\\import\\gnu\\arm\\4.9.
 168              		.file 4 "Generated_Source\\PSoC5/cytypes.h"
 169              		.file 5 "Generated_Source\\PSoC5/I2C.h"
 170              		.file 6 "Generated_Source\\PSoC5/CyLib.h"
 171              		.file 7 "Generated_Source\\PSoC5/core_cm3.h"