ARM GAS  C:\Users\NHANPH~1\AppData\Local\Temp\cc882a02.s 			page 1


   1              		.syntax unified
   2              		.cpu cortex-m3
   3              		.fpu softvfp
   4              		.eabi_attribute 20, 1
   5              		.eabi_attribute 21, 1
   6              		.eabi_attribute 23, 3
   7              		.eabi_attribute 24, 1
   8              		.eabi_attribute 25, 1
   9              		.eabi_attribute 26, 1
  10              		.eabi_attribute 30, 1
  11              		.eabi_attribute 34, 1
  12              		.eabi_attribute 18, 4
  13              		.thumb
  14              		.file	"IR.c"
  15              		.text
  16              	.Ltext0:
  17              		.cfi_sections	.debug_frame
  18              		.section	.text.wait_going_up,"ax",%progbits
  19              		.align	2
  20              		.global	wait_going_up
  21              		.thumb
  22              		.thumb_func
  23              		.type	wait_going_up, %function
  24              	wait_going_up:
  25              	.LFB63:
  26              		.file 1 "ZumoLibrary\\IR.c"
   1:ZumoLibrary/IR.c **** /**
   2:ZumoLibrary/IR.c ****  * @file IR.c
   3:ZumoLibrary/IR.c ****  * @brief Basic methods for operating IR receiver. For more details, please refer to IR.h file. 
   4:ZumoLibrary/IR.c ****  * @details part number: TSOP-2236
   5:ZumoLibrary/IR.c **** */
   6:ZumoLibrary/IR.c **** #include "IR.h"
   7:ZumoLibrary/IR.c **** 
   8:ZumoLibrary/IR.c **** 
   9:ZumoLibrary/IR.c **** /**
  10:ZumoLibrary/IR.c **** * @brief Waiting until signal goes up
  11:ZumoLibrary/IR.c **** * @details continue looping before IR_receiver value becomes 1
  12:ZumoLibrary/IR.c **** */
  13:ZumoLibrary/IR.c **** void wait_going_up()
  14:ZumoLibrary/IR.c **** {
  27              		.loc 1 14 0
  28              		.cfi_startproc
  29              		@ args = 0, pretend = 0, frame = 0
  30              		@ frame_needed = 0, uses_anonymous_args = 0
  31 0000 08B5     		push	{r3, lr}
  32              		.cfi_def_cfa_offset 8
  33              		.cfi_offset 3, -8
  34              		.cfi_offset 14, -4
  35              	.L2:
  15:ZumoLibrary/IR.c ****     while(!IR_receiver_Read()==1);
  36              		.loc 1 15 0 discriminator 1
  37 0002 FFF7FEFF 		bl	IR_receiver_Read
  38              	.LVL0:
  39 0006 0028     		cmp	r0, #0
  40 0008 FBD0     		beq	.L2
  16:ZumoLibrary/IR.c **** }    
  41              		.loc 1 16 0
ARM GAS  C:\Users\NHANPH~1\AppData\Local\Temp\cc882a02.s 			page 2


  42 000a 08BD     		pop	{r3, pc}
  43              		.cfi_endproc
  44              	.LFE63:
  45              		.size	wait_going_up, .-wait_going_up
  46              		.section	.text.wait_going_down,"ax",%progbits
  47              		.align	2
  48              		.global	wait_going_down
  49              		.thumb
  50              		.thumb_func
  51              		.type	wait_going_down, %function
  52              	wait_going_down:
  53              	.LFB64:
  17:ZumoLibrary/IR.c **** 
  18:ZumoLibrary/IR.c **** 
  19:ZumoLibrary/IR.c **** /**
  20:ZumoLibrary/IR.c **** * @brief Waiting until signal goes down
  21:ZumoLibrary/IR.c **** * @details continue looping before IR_receiver value becomes 0
  22:ZumoLibrary/IR.c **** */
  23:ZumoLibrary/IR.c **** void wait_going_down()
  24:ZumoLibrary/IR.c **** {
  54              		.loc 1 24 0
  55              		.cfi_startproc
  56              		@ args = 0, pretend = 0, frame = 0
  57              		@ frame_needed = 0, uses_anonymous_args = 0
  58 0000 08B5     		push	{r3, lr}
  59              		.cfi_def_cfa_offset 8
  60              		.cfi_offset 3, -8
  61              		.cfi_offset 14, -4
  62              	.L5:
  25:ZumoLibrary/IR.c ****     while(IR_receiver_Read()==1);
  63              		.loc 1 25 0 discriminator 1
  64 0002 FFF7FEFF 		bl	IR_receiver_Read
  65              	.LVL1:
  66 0006 0128     		cmp	r0, #1
  67 0008 FBD0     		beq	.L5
  26:ZumoLibrary/IR.c **** }
  68              		.loc 1 26 0
  69 000a 08BD     		pop	{r3, pc}
  70              		.cfi_endproc
  71              	.LFE64:
  72              		.size	wait_going_down, .-wait_going_down
  73              		.section	.text.count_downtime,"ax",%progbits
  74              		.align	2
  75              		.global	count_downtime
  76              		.thumb
  77              		.thumb_func
  78              		.type	count_downtime, %function
  79              	count_downtime:
  80              	.LFB65:
  27:ZumoLibrary/IR.c **** 
  28:ZumoLibrary/IR.c **** 
  29:ZumoLibrary/IR.c **** /**
  30:ZumoLibrary/IR.c **** * @brief Counting to signal down
  31:ZumoLibrary/IR.c **** * @details Measuring the time until IR_receiver value goes up
  32:ZumoLibrary/IR.c **** * @return int
  33:ZumoLibrary/IR.c **** *   - returns count time
  34:ZumoLibrary/IR.c **** */
ARM GAS  C:\Users\NHANPH~1\AppData\Local\Temp\cc882a02.s 			page 3


  35:ZumoLibrary/IR.c **** int count_downtime()
  36:ZumoLibrary/IR.c **** {
  81              		.loc 1 36 0
  82              		.cfi_startproc
  83              		@ args = 0, pretend = 0, frame = 0
  84              		@ frame_needed = 0, uses_anonymous_args = 0
  85 0000 10B5     		push	{r4, lr}
  86              		.cfi_def_cfa_offset 8
  87              		.cfi_offset 4, -8
  88              		.cfi_offset 14, -4
  89              	.LVL2:
  37:ZumoLibrary/IR.c ****     int cnt =0;
  90              		.loc 1 37 0
  91 0002 0024     		movs	r4, #0
  38:ZumoLibrary/IR.c ****     while(!IR_receiver_Read()==1)
  92              		.loc 1 38 0
  93 0004 00E0     		b	.L8
  94              	.LVL3:
  95              	.L9:
  39:ZumoLibrary/IR.c ****         cnt++;
  96              		.loc 1 39 0
  97 0006 0134     		adds	r4, r4, #1
  98              	.LVL4:
  99              	.L8:
  38:ZumoLibrary/IR.c ****     while(!IR_receiver_Read()==1)
 100              		.loc 1 38 0
 101 0008 FFF7FEFF 		bl	IR_receiver_Read
 102              	.LVL5:
 103 000c 0028     		cmp	r0, #0
 104 000e FAD0     		beq	.L9
  40:ZumoLibrary/IR.c ****     
  41:ZumoLibrary/IR.c ****     return cnt;
  42:ZumoLibrary/IR.c **** }
 105              		.loc 1 42 0
 106 0010 2046     		mov	r0, r4
 107 0012 10BD     		pop	{r4, pc}
 108              		.cfi_endproc
 109              	.LFE65:
 110              		.size	count_downtime, .-count_downtime
 111              		.section	.text.count_uptime,"ax",%progbits
 112              		.align	2
 113              		.global	count_uptime
 114              		.thumb
 115              		.thumb_func
 116              		.type	count_uptime, %function
 117              	count_uptime:
 118              	.LFB66:
  43:ZumoLibrary/IR.c **** 
  44:ZumoLibrary/IR.c **** 
  45:ZumoLibrary/IR.c **** /**
  46:ZumoLibrary/IR.c **** * @brief    Counting to signal up 
  47:ZumoLibrary/IR.c **** * @details  Measuring the time until IR_receiver value goes down
  48:ZumoLibrary/IR.c **** * @return   int
  49:ZumoLibrary/IR.c **** *   - returns count time
  50:ZumoLibrary/IR.c **** */
  51:ZumoLibrary/IR.c **** int count_uptime()
  52:ZumoLibrary/IR.c **** {
ARM GAS  C:\Users\NHANPH~1\AppData\Local\Temp\cc882a02.s 			page 4


 119              		.loc 1 52 0
 120              		.cfi_startproc
 121              		@ args = 0, pretend = 0, frame = 0
 122              		@ frame_needed = 0, uses_anonymous_args = 0
 123 0000 10B5     		push	{r4, lr}
 124              		.cfi_def_cfa_offset 8
 125              		.cfi_offset 4, -8
 126              		.cfi_offset 14, -4
 127              	.LVL6:
  53:ZumoLibrary/IR.c ****     int cnt =0;
 128              		.loc 1 53 0
 129 0002 0024     		movs	r4, #0
  54:ZumoLibrary/IR.c ****     while(IR_receiver_Read()==1)
 130              		.loc 1 54 0
 131 0004 00E0     		b	.L12
 132              	.LVL7:
 133              	.L13:
  55:ZumoLibrary/IR.c ****         cnt++;
 134              		.loc 1 55 0
 135 0006 0134     		adds	r4, r4, #1
 136              	.LVL8:
 137              	.L12:
  54:ZumoLibrary/IR.c ****     while(IR_receiver_Read()==1)
 138              		.loc 1 54 0
 139 0008 FFF7FEFF 		bl	IR_receiver_Read
 140              	.LVL9:
 141 000c 0128     		cmp	r0, #1
 142 000e FAD0     		beq	.L13
  56:ZumoLibrary/IR.c ****     
  57:ZumoLibrary/IR.c ****     return cnt;
  58:ZumoLibrary/IR.c **** }
 143              		.loc 1 58 0
 144 0010 2046     		mov	r0, r4
 145 0012 10BD     		pop	{r4, pc}
 146              		.cfi_endproc
 147              	.LFE66:
 148              		.size	count_uptime, .-count_uptime
 149              		.section	.text.get_IR,"ax",%progbits
 150              		.align	2
 151              		.global	get_IR
 152              		.thumb
 153              		.thumb_func
 154              		.type	get_IR, %function
 155              	get_IR:
 156              	.LFB67:
  59:ZumoLibrary/IR.c **** 
  60:ZumoLibrary/IR.c **** 
  61:ZumoLibrary/IR.c **** /**
  62:ZumoLibrary/IR.c **** * @brief    Getting remote controller value
  63:ZumoLibrary/IR.c **** * @details  Getting each of the value sent by remote controller
  64:ZumoLibrary/IR.c **** * @return   int
  65:ZumoLibrary/IR.c ****     - returns hex value
  66:ZumoLibrary/IR.c **** */
  67:ZumoLibrary/IR.c **** int get_IR()
  68:ZumoLibrary/IR.c **** {
 157              		.loc 1 68 0
 158              		.cfi_startproc
ARM GAS  C:\Users\NHANPH~1\AppData\Local\Temp\cc882a02.s 			page 5


 159              		@ args = 0, pretend = 0, frame = 40
 160              		@ frame_needed = 0, uses_anonymous_args = 0
 161 0000 30B5     		push	{r4, r5, lr}
 162              		.cfi_def_cfa_offset 12
 163              		.cfi_offset 4, -12
 164              		.cfi_offset 5, -8
 165              		.cfi_offset 14, -4
 166 0002 8BB0     		sub	sp, sp, #44
 167              		.cfi_def_cfa_offset 56
  69:ZumoLibrary/IR.c ****     uint8 bit[33]={0};
 168              		.loc 1 69 0
 169 0004 0024     		movs	r4, #0
 170 0006 0194     		str	r4, [sp, #4]
 171 0008 0294     		str	r4, [sp, #8]
 172 000a 0394     		str	r4, [sp, #12]
 173 000c 0494     		str	r4, [sp, #16]
 174 000e 0594     		str	r4, [sp, #20]
 175 0010 0694     		str	r4, [sp, #24]
 176 0012 0794     		str	r4, [sp, #28]
 177 0014 0894     		str	r4, [sp, #32]
 178 0016 8DF82440 		strb	r4, [sp, #36]
 179              	.LVL10:
  70:ZumoLibrary/IR.c ****     unsigned int val=0;
  71:ZumoLibrary/IR.c ****     uint t1, t2, i;
  72:ZumoLibrary/IR.c ****     
  73:ZumoLibrary/IR.c ****     wait_going_down();
 180              		.loc 1 73 0
 181 001a FFF7FEFF 		bl	wait_going_down
 182              	.LVL11:
  74:ZumoLibrary/IR.c ****     
  75:ZumoLibrary/IR.c ****     for(i = 0; i < 33; i++)     // loop 33times ( 1bit - Start bit, 32bits - Databit)
 183              		.loc 1 75 0
 184 001e 12E0     		b	.L16
 185              	.LVL12:
 186              	.L19:
  76:ZumoLibrary/IR.c ****     {
  77:ZumoLibrary/IR.c ****         t1 = 0;
  78:ZumoLibrary/IR.c ****         t2 = 0;
  79:ZumoLibrary/IR.c ****         
  80:ZumoLibrary/IR.c ****         t1 = count_downtime();
 187              		.loc 1 80 0
 188 0020 FFF7FEFF 		bl	count_downtime
 189              	.LVL13:
 190 0024 0546     		mov	r5, r0
 191              	.LVL14:
  81:ZumoLibrary/IR.c ****         t2 = count_uptime();
 192              		.loc 1 81 0
 193 0026 FFF7FEFF 		bl	count_uptime
 194              	.LVL15:
  82:ZumoLibrary/IR.c ****         
  83:ZumoLibrary/IR.c ****         // If up time is longer than down time, value of the bit becomes 1
  84:ZumoLibrary/IR.c ****         if(t2 > t1)
 195              		.loc 1 84 0
 196 002a A842     		cmp	r0, r5
 197 002c 05D9     		bls	.L17
  85:ZumoLibrary/IR.c ****             bit[i]=1;
 198              		.loc 1 85 0
ARM GAS  C:\Users\NHANPH~1\AppData\Local\Temp\cc882a02.s 			page 6


 199 002e 0122     		movs	r2, #1
 200 0030 0AAB     		add	r3, sp, #40
 201 0032 2344     		add	r3, r3, r4
 202 0034 03F8242C 		strb	r2, [r3, #-36]
 203 0038 04E0     		b	.L18
 204              	.L17:
  86:ZumoLibrary/IR.c ****         else
  87:ZumoLibrary/IR.c ****             bit[i]=0; 
 205              		.loc 1 87 0
 206 003a 0022     		movs	r2, #0
 207 003c 0AAB     		add	r3, sp, #40
 208 003e 2344     		add	r3, r3, r4
 209 0040 03F8242C 		strb	r2, [r3, #-36]
 210              	.L18:
  75:ZumoLibrary/IR.c ****     {
 211              		.loc 1 75 0 discriminator 2
 212 0044 0134     		adds	r4, r4, #1
 213              	.LVL16:
 214              	.L16:
  75:ZumoLibrary/IR.c ****     {
 215              		.loc 1 75 0 is_stmt 0 discriminator 1
 216 0046 202C     		cmp	r4, #32
 217 0048 EAD9     		bls	.L19
 218 004a 0023     		movs	r3, #0
 219 004c 1846     		mov	r0, r3
 220 004e 08E0     		b	.L20
 221              	.LVL17:
 222              	.L21:
  88:ZumoLibrary/IR.c ****     } 
  89:ZumoLibrary/IR.c ****    
  90:ZumoLibrary/IR.c ****     /* // If you want to see binary value
  91:ZumoLibrary/IR.c ****     int cnt;
  92:ZumoLibrary/IR.c ****     for(cnt=0; cnt<33; cnt++)
  93:ZumoLibrary/IR.c ****         printf("%d ",bit[cnt]);
  94:ZumoLibrary/IR.c ****     printf("\r\n\n");
  95:ZumoLibrary/IR.c ****     */
  96:ZumoLibrary/IR.c ****    
  97:ZumoLibrary/IR.c ****     // compress bits to single int, ignore start bit
  98:ZumoLibrary/IR.c **** 
  99:ZumoLibrary/IR.c ****     for( i=0; i<32; i++)
 100:ZumoLibrary/IR.c ****         val |= bit[i+1] << i;
 223              		.loc 1 100 0 is_stmt 1 discriminator 3
 224 0050 591C     		adds	r1, r3, #1
 225 0052 0AAA     		add	r2, sp, #40
 226 0054 0A44     		add	r2, r2, r1
 227 0056 12F8242C 		ldrb	r2, [r2, #-36]	@ zero_extendqisi2
 228 005a 02FA03F3 		lsl	r3, r2, r3
 229              	.LVL18:
 230 005e 1843     		orrs	r0, r0, r3
 231              	.LVL19:
  99:ZumoLibrary/IR.c ****         val |= bit[i+1] << i;
 232              		.loc 1 99 0 discriminator 3
 233 0060 0B46     		mov	r3, r1
 234              	.LVL20:
 235              	.L20:
  99:ZumoLibrary/IR.c ****         val |= bit[i+1] << i;
 236              		.loc 1 99 0 is_stmt 0 discriminator 1
ARM GAS  C:\Users\NHANPH~1\AppData\Local\Temp\cc882a02.s 			page 7


 237 0062 1F2B     		cmp	r3, #31
 238 0064 F4D9     		bls	.L21
 101:ZumoLibrary/IR.c ****     
 102:ZumoLibrary/IR.c ****     return val;
 103:ZumoLibrary/IR.c **** }...
 239              		.loc 1 103 0 is_stmt 1
 240 0066 0BB0     		add	sp, sp, #44
 241              		.cfi_def_cfa_offset 12
 242              		@ sp needed
 243 0068 30BD     		pop	{r4, r5, pc}
 244              		.cfi_endproc
 245              	.LFE67:
 246              		.size	get_IR, .-get_IR
 247 006a 00BF     		.text
 248              	.Letext0:
 249              		.file 2 "c:\\program files (x86)\\cypress\\psoc creator\\4.0\\psoc creator\\import\\gnu\\arm\\4.9.
 250              		.file 3 "c:\\program files (x86)\\cypress\\psoc creator\\4.0\\psoc creator\\import\\gnu\\arm\\4.9.
 251              		.file 4 "Generated_Source\\PSoC5/cytypes.h"
 252              		.file 5 "c:\\program files (x86)\\cypress\\psoc creator\\4.0\\psoc creator\\import\\gnu\\arm\\4.9.
 253              		.file 6 "Generated_Source\\PSoC5/core_cm3.h"
 254              		.file 7 "Generated_Source\\PSoC5/IR_receiver.h"