ARM GAS  C:\Users\NHANPH~1\AppData\Local\Temp\cchcj3A1.s 			page 1


   1              		.syntax unified
   2              		.cpu cortex-m3
   3              		.fpu softvfp
   4              		.eabi_attribute 20, 1
   5              		.eabi_attribute 21, 1
   6              		.eabi_attribute 23, 3
   7              		.eabi_attribute 24, 1
   8              		.eabi_attribute 25, 1
   9              		.eabi_attribute 26, 1
  10              		.eabi_attribute 30, 1
  11              		.eabi_attribute 34, 1
  12              		.eabi_attribute 18, 4
  13              		.thumb
  14              		.file	"main.c"
  15              		.text
  16              	.Ltext0:
  17              		.cfi_sections	.debug_frame
  18              		.global	__aeabi_fmul
  19              		.global	__aeabi_f2d
  20              		.global	__aeabi_fcmple
  21              		.global	__aeabi_dcmpge
  22              		.section	.text.batteryAlert,"ax",%progbits
  23              		.align	2
  24              		.global	batteryAlert
  25              		.thumb
  26              		.thumb_func
  27              		.type	batteryAlert, %function
  28              	batteryAlert:
  29              	.LFB64:
  30              		.file 1 "main.c"
   1:main.c        **** /**
   2:main.c        **** * @mainpage ZumoBot Project
   3:main.c        **** * @brief    You can make your own ZumoBot with various sensors.
   4:main.c        **** * @details  <br><br>
   5:main.c        ****     <p>
   6:main.c        ****     <B>General</B><br>
   7:main.c        ****     You will use Pololu Zumo Shields for your robot project with CY8CKIT-059(PSoC 5LP) from Cypress
   8:main.c        ****     library has basic methods of various sensors and communications so that you can make what you w
   9:main.c        ****     <br><br>
  10:main.c        ****     </p>
  11:main.c        ****     
  12:main.c        ****     <p>
  13:main.c        ****     <B>Sensors</B><br>
  14:main.c        ****     &nbsp;Included: <br>
  15:main.c        ****         &nbsp;&nbsp;&nbsp;&nbsp;LSM303D: Accelerometer & Magnetometer<br>
  16:main.c        ****         &nbsp;&nbsp;&nbsp;&nbsp;L3GD20H: Gyroscope<br>
  17:main.c        ****         &nbsp;&nbsp;&nbsp;&nbsp;Reflectance sensor<br>
  18:main.c        ****         &nbsp;&nbsp;&nbsp;&nbsp;Motors
  19:main.c        ****     &nbsp;Wii nunchuck<br>
  20:main.c        ****     &nbsp;TSOP-2236: IR Receiver<br>
  21:main.c        ****     &nbsp;HC-SR04: Ultrasonic sensor<br>
  22:main.c        ****     &nbsp;APDS-9301: Ambient light sensor<br>
  23:main.c        ****     &nbsp;IR LED <br><br><br>
  24:main.c        ****     </p>
  25:main.c        ****     
  26:main.c        ****     <p>
  27:main.c        ****     <B>Communication</B><br>
ARM GAS  C:\Users\NHANPH~1\AppData\Local\Temp\cchcj3A1.s 			page 2


  28:main.c        ****     I2C, UART, Serial<br>
  29:main.c        ****     </p>
  30:main.c        **** */
  31:main.c        **** 
  32:main.c        **** #include <project.h>
  33:main.c        **** #include <stdio.h>
  34:main.c        **** #include "Motor.h"
  35:main.c        **** #include "Ultra.h"
  36:main.c        **** #include "Nunchuk.h"
  37:main.c        **** #include "Reflectance.h"
  38:main.c        **** #include "I2C_made.h"
  39:main.c        **** #include "Gyro.h"
  40:main.c        **** #include "Accel_magnet.h"
  41:main.c        **** #include "IR.h"
  42:main.c        **** #include "Ambient.h"
  43:main.c        **** #include "Beep.h"
  44:main.c        **** #include "Pathfinding.h"
  45:main.c        **** #include "Sumoing.h"
  46:main.c        **** 
  47:main.c        **** #define SENSOR_TH 11000
  48:main.c        **** 
  49:main.c        **** void batteryAlert(void);
  50:main.c        **** int rread(void);
  51:main.c        **** 
  52:main.c        **** /**
  53:main.c        ****  * @file    main.c
  54:main.c        ****  * @brief   
  55:main.c        ****  * @details  ** You should enable global interrupt for operating properly. **<br>&nbsp;&nbsp;&nbsp;
  56:main.c        **** */
  57:main.c        **** 
  58:main.c        **** int main()
  59:main.c        **** {
  60:main.c        ****     CyGlobalIntEnable; 
  61:main.c        ****     UART_1_Start();       
  62:main.c        ****     
  63:main.c        ****     
  64:main.c        ****     //Battery declaration
  65:main.c        ****     
  66:main.c        ****     struct sensors_ ref;
  67:main.c        ****     struct sensors_ dig;  
  68:main.c        ****     uint8_t detect = 0, countdown = 100, checkStop = 0, lastBlack = 0;
  69:main.c        ****         
  70:main.c        ****     IR_led_Write(1);
  71:main.c        ****     motor_start();
  72:main.c        ****     
  73:main.c        ****     //Ultra_Start();                          // Ultra Sonic Start function    
  74:main.c        ****     
  75:main.c        ****     sensor_isr_StartEx(sensor_isr_handler);   
  76:main.c        ****     
  77:main.c        ****     reflectance_start();
  78:main.c        ****     
  79:main.c        ****     // Robot start running and stop at the first black line
  80:main.c        ****     uint8_t initialRun = 0;    
  81:main.c        ****     motor_forward(100,0);
  82:main.c        ****     while (initialRun != 2) {
  83:main.c        ****         reflectance_read(&ref);
  84:main.c        ****         printf("%d %d %d %d \r\n", ref.l3, ref.l1, ref.r1, ref.r3);
ARM GAS  C:\Users\NHANPH~1\AppData\Local\Temp\cchcj3A1.s 			page 3


  85:main.c        ****         // If it reached the first black line it will count to 1
  86:main.c        ****         // if the robot is in our hand then do nothing.
  87:main.c        ****         // (if 1111 then it is in our hand)
  88:main.c        ****         // If it is put on the track then initiate state
  89:main.c        ****         // if 0110
  90:main.c        ****         if (ref.r1>SENSOR_TH&&ref.l1>SENSOR_TH&&ref.r3<SENSOR_TH&&ref.l3<SENSOR_TH) {
  91:main.c        ****             initialRun = 1;
  92:main.c        ****         }
  93:main.c        ****         
  94:main.c        ****         // if the robot not in our hand (inititalRun = 1)
  95:main.c        ****         // Then it still move forward, so if it go out of the black line it will stop
  96:main.c        ****         if (initialRun ==1 && ref.r3>=SENSOR_TH&&ref.l3>=SENSOR_TH) {
  97:main.c        ****             initialRun = 2;
  98:main.c        ****         }
  99:main.c        ****     }
 100:main.c        ****     
 101:main.c        ****     // move forward a little bit
 102:main.c        ****     motor_forward(100,50);
 103:main.c        ****     motor_stop();
 104:main.c        ****     
 105:main.c        ****     int button = 1;
 106:main.c        ****     
 107:main.c        ****     while (button == 1) {
 108:main.c        ****     button = get_IR();
 109:main.c        ****     }
 110:main.c        ****     
 111:main.c        ****     motor_start();
 112:main.c        ****     //Sumo mode move forward a little bit
 113:main.c        ****     //Pathfinding should also move forward to avoid read the first black line
 114:main.c        ****     motor_forward(255,300);
 115:main.c        ****     
 116:main.c        ****     for(;;)
 117:main.c        ****     {   
 118:main.c        ****         // always check for the battery alert
 119:main.c        ****         batteryAlert();
 120:main.c        ****         
 121:main.c        ****         // path finding program     
 122:main.c        ****         reflectance_read(&ref);
 123:main.c        ****         //print out each period of reflectance sensors
 124:main.c        ****         printf("%d %d %d %d \r\n", ref.l3, ref.l1, ref.r1, ref.r3);
 125:main.c        ****         //print out 0 or 1 according to results of reflectance period
 126:main.c        ****         reflectance_digital(&dig);
 127:main.c        ****         //print out 0 or 1 according to results of reflectance period
 128:main.c        ****         printf("%d %d %d %d \r\n", dig.l3, dig.l1, dig.r1, dig.r3);       
 129:main.c        ****         
 130:main.c        ****                 
 131:main.c        ****         Sumoing(ref.r1, ref.r3, ref.l1, ref.l3);        
 132:main.c        ****         //PathfindingAdv(ref.r1, ref.r3, ref.l1, ref.l3, &checkStop, &lastBlack);
 133:main.c        ****         //CyDelay(100);
 134:main.c        ****     }
 135:main.c        **** }   
 136:main.c        **** 
 137:main.c        **** // alert the users by make a non stop beep sound and stop motor
 138:main.c        **** // if the battery level is low
 139:main.c        **** void batteryAlert() {
  31              		.loc 1 139 0
  32              		.cfi_startproc
ARM GAS  C:\Users\NHANPH~1\AppData\Local\Temp\cchcj3A1.s 			page 4


  33              		@ args = 0, pretend = 0, frame = 0
  34              		@ frame_needed = 0, uses_anonymous_args = 0
  35 0000 70B5     		push	{r4, r5, r6, lr}
  36              		.cfi_def_cfa_offset 16
  37              		.cfi_offset 4, -16
  38              		.cfi_offset 5, -12
  39              		.cfi_offset 6, -8
  40              		.cfi_offset 14, -4
 140:main.c        ****     // function to alert here
 141:main.c        ****     ADC_Battery_Start();        
  41              		.loc 1 141 0
  42 0002 FFF7FEFF 		bl	ADC_Battery_Start
  43              	.LVL0:
 142:main.c        ****     int16 adcresult =0;
 143:main.c        ****     float volts = 0.0;
 144:main.c        ****     ADC_Battery_StartConvert();
  44              		.loc 1 144 0
  45 0006 FFF7FEFF 		bl	ADC_Battery_StartConvert
  46              	.LVL1:
 145:main.c        ****         if(ADC_Battery_IsEndConversion(ADC_Battery_WAIT_FOR_RESULT)) {   
  47              		.loc 1 145 0
  48 000a 0020     		movs	r0, #0
  49 000c FFF7FEFF 		bl	ADC_Battery_IsEndConversion
  50              	.LVL2:
  51 0010 40B3     		cbz	r0, .L1
 146:main.c        ****             adcresult = ADC_Battery_GetResult16();
  52              		.loc 1 146 0
  53 0012 FFF7FEFF 		bl	ADC_Battery_GetResult16
  54              	.LVL3:
 147:main.c        ****             volts = ADC_Battery_CountsTo_Volts(adcresult)*1.5;
  55              		.loc 1 147 0
  56 0016 FFF7FEFF 		bl	ADC_Battery_CountsTo_Volts
  57              	.LVL4:
  58 001a 4FF07F51 		mov	r1, #1069547520
  59 001e FFF7FEFF 		bl	__aeabi_fmul
  60              	.LVL5:
  61 0022 0646     		mov	r6, r0
  62              	.LVL6:
 148:main.c        ****             printf("Volts: %f\n", volts);
  63              		.loc 1 148 0
  64 0024 FFF7FEFF 		bl	__aeabi_f2d
  65              	.LVL7:
  66 0028 0446     		mov	r4, r0
  67 002a 0D46     		mov	r5, r1
  68 002c 1048     		ldr	r0, .L8+8
  69 002e 2246     		mov	r2, r4
  70 0030 0B46     		mov	r3, r1
  71 0032 FFF7FEFF 		bl	printf
  72              	.LVL8:
 149:main.c        ****             if(volts<=4.0 && volts >=1.6){
  73              		.loc 1 149 0
  74 0036 3046     		mov	r0, r6
  75 0038 4FF08141 		mov	r1, #1082130432
  76 003c FFF7FEFF 		bl	__aeabi_fcmple
  77              	.LVL9:
  78 0040 80B1     		cbz	r0, .L1
  79              		.loc 1 149 0 is_stmt 0 discriminator 1
ARM GAS  C:\Users\NHANPH~1\AppData\Local\Temp\cchcj3A1.s 			page 5


  80 0042 2046     		mov	r0, r4
  81 0044 2946     		mov	r1, r5
  82 0046 08A3     		adr	r3, .L8
  83 0048 D3E90023 		ldrd	r2, [r3]
  84 004c FFF7FEFF 		bl	__aeabi_dcmpge
  85              	.LVL10:
  86 0050 40B1     		cbz	r0, .L1
 150:main.c        ****                 Beep(500,200);
  87              		.loc 1 150 0 is_stmt 1
  88 0052 4FF4FA70 		mov	r0, #500
  89 0056 C821     		movs	r1, #200
  90 0058 FFF7FEFF 		bl	Beep
  91              	.LVL11:
 151:main.c        ****                 CyDelay(2000);
  92              		.loc 1 151 0
  93 005c 4FF4FA60 		mov	r0, #2000
  94 0060 FFF7FEFF 		bl	CyDelay
  95              	.LVL12:
  96              	.L1:
  97 0064 70BD     		pop	{r4, r5, r6, pc}
  98              	.L9:
  99 0066 00BF     		.align	3
 100              	.L8:
 101 0068 9A999999 		.word	-1717986918
 102 006c 9999F93F 		.word	1073322393
 103 0070 00000000 		.word	.LC0
 104              		.cfi_endproc
 105              	.LFE64:
 106              		.size	batteryAlert, .-batteryAlert
 107 0074 AFF30080 		.section	.text.main,"ax",%progbits
 108              		.align	2
 109              		.global	main
 110              		.thumb
 111              		.thumb_func
 112              		.type	main, %function
 113              	main:
 114              	.LFB63:
  59:main.c        ****     CyGlobalIntEnable; 
 115              		.loc 1 59 0
 116              		.cfi_startproc
 117              		@ args = 0, pretend = 0, frame = 16
 118              		@ frame_needed = 0, uses_anonymous_args = 0
 119 0000 10B5     		push	{r4, lr}
 120              		.cfi_def_cfa_offset 8
 121              		.cfi_offset 4, -8
 122              		.cfi_offset 14, -4
 123 0002 86B0     		sub	sp, sp, #24
 124              		.cfi_def_cfa_offset 32
  60:main.c        ****     UART_1_Start();       
 125              		.loc 1 60 0
 126              	@ 60 "main.c" 1
 127 0004 62B6     		CPSIE   i
 128              	@ 0 "" 2
  61:main.c        ****     
 129              		.loc 1 61 0
 130              		.thumb
 131 0006 FFF7FEFF 		bl	UART_1_Start
ARM GAS  C:\Users\NHANPH~1\AppData\Local\Temp\cchcj3A1.s 			page 6


 132              	.LVL13:
  70:main.c        ****     motor_start();
 133              		.loc 1 70 0
 134 000a 0120     		movs	r0, #1
 135 000c FFF7FEFF 		bl	IR_led_Write
 136              	.LVL14:
  71:main.c        ****     
 137              		.loc 1 71 0
 138 0010 FFF7FEFF 		bl	motor_start
 139              	.LVL15:
  75:main.c        ****     
 140              		.loc 1 75 0
 141 0014 3E48     		ldr	r0, .L21
 142 0016 FFF7FEFF 		bl	sensor_isr_StartEx
 143              	.LVL16:
  77:main.c        ****     
 144              		.loc 1 77 0
 145 001a FFF7FEFF 		bl	reflectance_start
 146              	.LVL17:
  81:main.c        ****     while (initialRun != 2) {
 147              		.loc 1 81 0
 148 001e 6420     		movs	r0, #100
 149 0020 0021     		movs	r1, #0
 150 0022 FFF7FEFF 		bl	motor_forward
 151              	.LVL18:
  80:main.c        ****     motor_forward(100,0);
 152              		.loc 1 80 0
 153 0026 0024     		movs	r4, #0
  82:main.c        ****         reflectance_read(&ref);
 154              		.loc 1 82 0
 155 0028 30E0     		b	.L11
 156              	.LVL19:
 157              	.L14:
  83:main.c        ****         printf("%d %d %d %d \r\n", ref.l3, ref.l1, ref.r1, ref.r3);
 158              		.loc 1 83 0
 159 002a 04A8     		add	r0, sp, #16
 160 002c FFF7FEFF 		bl	reflectance_read
 161              	.LVL20:
  84:main.c        ****         // If it reached the first black line it will count to 1
 162              		.loc 1 84 0
 163 0030 BDF81010 		ldrh	r1, [sp, #16]
 164 0034 BDF81220 		ldrh	r2, [sp, #18]
 165 0038 BDF81430 		ldrh	r3, [sp, #20]
 166 003c BDF81600 		ldrh	r0, [sp, #22]
 167 0040 0090     		str	r0, [sp]
 168 0042 3448     		ldr	r0, .L21+4
 169 0044 FFF7FEFF 		bl	printf
 170              	.LVL21:
  90:main.c        ****             initialRun = 1;
 171              		.loc 1 90 0
 172 0048 BDF81420 		ldrh	r2, [sp, #20]
 173 004c 42F6F823 		movw	r3, #11000
 174 0050 9A42     		cmp	r2, r3
 175 0052 0ED9     		bls	.L12
  90:main.c        ****             initialRun = 1;
 176              		.loc 1 90 0 is_stmt 0 discriminator 1
 177 0054 BDF81220 		ldrh	r2, [sp, #18]
ARM GAS  C:\Users\NHANPH~1\AppData\Local\Temp\cchcj3A1.s 			page 7


 178 0058 9A42     		cmp	r2, r3
 179 005a 0AD9     		bls	.L12
  90:main.c        ****             initialRun = 1;
 180              		.loc 1 90 0 discriminator 2
 181 005c BDF81620 		ldrh	r2, [sp, #22]
 182 0060 42F6F723 		movw	r3, #10999
 183 0064 9A42     		cmp	r2, r3
 184 0066 04D8     		bhi	.L12
  90:main.c        ****             initialRun = 1;
 185              		.loc 1 90 0 discriminator 3
 186 0068 BDF81020 		ldrh	r2, [sp, #16]
 187 006c 9A42     		cmp	r2, r3
 188 006e 00D8     		bhi	.L12
  91:main.c        ****         }
 189              		.loc 1 91 0 is_stmt 1
 190 0070 0124     		movs	r4, #1
 191              	.LVL22:
 192              	.L12:
  96:main.c        ****             initialRun = 2;
 193              		.loc 1 96 0
 194 0072 012C     		cmp	r4, #1
 195 0074 0AD1     		bne	.L11
  96:main.c        ****             initialRun = 2;
 196              		.loc 1 96 0 is_stmt 0 discriminator 1
 197 0076 BDF81620 		ldrh	r2, [sp, #22]
 198 007a 42F6F723 		movw	r3, #10999
 199 007e 9A42     		cmp	r2, r3
 200 0080 04D9     		bls	.L11
  96:main.c        ****             initialRun = 2;
 201              		.loc 1 96 0 discriminator 2
 202 0082 BDF81020 		ldrh	r2, [sp, #16]
 203 0086 9A42     		cmp	r2, r3
 204 0088 00D9     		bls	.L11
  97:main.c        ****         }
 205              		.loc 1 97 0 is_stmt 1
 206 008a 0224     		movs	r4, #2
 207              	.LVL23:
 208              	.L11:
  82:main.c        ****         reflectance_read(&ref);
 209              		.loc 1 82 0
 210 008c 022C     		cmp	r4, #2
 211 008e CCD1     		bne	.L14
 102:main.c        ****     motor_stop();
 212              		.loc 1 102 0
 213 0090 6420     		movs	r0, #100
 214 0092 3221     		movs	r1, #50
 215 0094 FFF7FEFF 		bl	motor_forward
 216              	.LVL24:
 103:main.c        ****     
 217              		.loc 1 103 0
 218 0098 FFF7FEFF 		bl	motor_stop
 219              	.LVL25:
 105:main.c        ****     
 220              		.loc 1 105 0
 221 009c 0120     		movs	r0, #1
 107:main.c        ****     button = get_IR();
 222              		.loc 1 107 0
ARM GAS  C:\Users\NHANPH~1\AppData\Local\Temp\cchcj3A1.s 			page 8


 223 009e 01E0     		b	.L15
 224              	.LVL26:
 225              	.L16:
 108:main.c        ****     }
 226              		.loc 1 108 0
 227 00a0 FFF7FEFF 		bl	get_IR
 228              	.LVL27:
 229              	.L15:
 107:main.c        ****     button = get_IR();
 230              		.loc 1 107 0
 231 00a4 0128     		cmp	r0, #1
 232 00a6 FBD0     		beq	.L16
 111:main.c        ****     //Sumo mode move forward a little bit
 233              		.loc 1 111 0
 234 00a8 FFF7FEFF 		bl	motor_start
 235              	.LVL28:
 114:main.c        ****     
 236              		.loc 1 114 0
 237 00ac FF20     		movs	r0, #255
 238 00ae 4FF49671 		mov	r1, #300
 239 00b2 FFF7FEFF 		bl	motor_forward
 240              	.LVL29:
 241              	.L17:
 119:main.c        ****         
 242              		.loc 1 119 0 discriminator 1
 243 00b6 FFF7FEFF 		bl	batteryAlert
 244              	.LVL30:
 122:main.c        ****         //print out each period of reflectance sensors
 245              		.loc 1 122 0 discriminator 1
 246 00ba 04A8     		add	r0, sp, #16
 247 00bc FFF7FEFF 		bl	reflectance_read
 248              	.LVL31:
 124:main.c        ****         //print out 0 or 1 according to results of reflectance period
 249              		.loc 1 124 0 discriminator 1
 250 00c0 BDF81010 		ldrh	r1, [sp, #16]
 251 00c4 BDF81220 		ldrh	r2, [sp, #18]
 252 00c8 BDF81430 		ldrh	r3, [sp, #20]
 253 00cc BDF81600 		ldrh	r0, [sp, #22]
 254 00d0 104C     		ldr	r4, .L21+4
 255 00d2 0090     		str	r0, [sp]
 256 00d4 2046     		mov	r0, r4
 257 00d6 FFF7FEFF 		bl	printf
 258              	.LVL32:
 126:main.c        ****         //print out 0 or 1 according to results of reflectance period
 259              		.loc 1 126 0 discriminator 1
 260 00da 02A8     		add	r0, sp, #8
 261 00dc FFF7FEFF 		bl	reflectance_digital
 262              	.LVL33:
 128:main.c        ****         
 263              		.loc 1 128 0 discriminator 1
 264 00e0 BDF80810 		ldrh	r1, [sp, #8]
 265 00e4 BDF80A20 		ldrh	r2, [sp, #10]
 266 00e8 BDF80C30 		ldrh	r3, [sp, #12]
 267 00ec BDF80E00 		ldrh	r0, [sp, #14]
 268 00f0 0090     		str	r0, [sp]
 269 00f2 2046     		mov	r0, r4
 270 00f4 FFF7FEFF 		bl	printf
ARM GAS  C:\Users\NHANPH~1\AppData\Local\Temp\cchcj3A1.s 			page 9


 271              	.LVL34:
 131:main.c        ****         //PathfindingAdv(ref.r1, ref.r3, ref.l1, ref.l3, &checkStop, &lastBlack);
 272              		.loc 1 131 0 discriminator 1
 273 00f8 BDF81400 		ldrh	r0, [sp, #20]
 274 00fc BDF81610 		ldrh	r1, [sp, #22]
 275 0100 BDF81220 		ldrh	r2, [sp, #18]
 276 0104 BDF81030 		ldrh	r3, [sp, #16]
 277 0108 FFF7FEFF 		bl	Sumoing
 278              	.LVL35:
 134:main.c        **** }   
 279              		.loc 1 134 0 discriminator 1
 280 010c D3E7     		b	.L17
 281              	.L22:
 282 010e 00BF     		.align	2
 283              	.L21:
 284 0110 00000000 		.word	sensor_isr_handler
 285 0114 0C000000 		.word	.LC1
 286              		.cfi_endproc
 287              	.LFE63:
 288              		.size	main, .-main
 289              		.section	.text._write,"ax",%progbits
 290              		.align	2
 291              		.global	_write
 292              		.thumb
 293              		.thumb_func
 294              		.type	_write, %function
 295              	_write:
 296              	.LFB65:
 152:main.c        ****             }
 153:main.c        ****         }
 154:main.c        **** }
 155:main.c        **** 
 156:main.c        **** /*//battery level//
 157:main.c        **** int main()
 158:main.c        **** {
 159:main.c        ****     CyGlobalIntEnable; 
 160:main.c        ****     UART_1_Start();
 161:main.c        ****     ADC_Battery_Start();        
 162:main.c        ****     int16 adcresult =0;
 163:main.c        ****     float volts = 0.0;
 164:main.c        **** 
 165:main.c        ****     printf("\nBoot\n");
 166:main.c        ****     //BatteryLed_Write(1); // Switch led on 
 167:main.c        ****     BatteryLed_Write(0); // Switch led off 
 168:main.c        ****     //uint8 button;
 169:main.c        ****     //button = SW1_Read(); // read SW1 on pSoC board
 170:main.c        **** 
 171:main.c        ****     for(;;)
 172:main.c        ****     {
 173:main.c        ****         
 174:main.c        ****         ADC_Battery_StartConvert();
 175:main.c        ****         if(ADC_Battery_IsEndConversion(ADC_Battery_WAIT_FOR_RESULT)) {   // wait for get ADC conver
 176:main.c        ****             adcresult = ADC_Battery_GetResult16();
 177:main.c        ****             // Convert by multiple by 1.5 (big Timo)
 178:main.c        ****             volts = ADC_Battery_CountsTo_Volts(adcresult)*1.5;                  // convert value to
 179:main.c        ****         
 180:main.c        ****             // If you want to print value
ARM GAS  C:\Users\NHANPH~1\AppData\Local\Temp\cchcj3A1.s 			page 10


 181:main.c        ****             printf("%d %f\r\n",adcresult, volts);
 182:main.c        ****         }
 183:main.c        ****         CyDelay(500);
 184:main.c        ****         
 185:main.c        ****     }
 186:main.c        ****  }   
 187:main.c        **** //*/
 188:main.c        **** 
 189:main.c        **** 
 190:main.c        **** /*//ultra sonic sensor//
 191:main.c        **** int main()
 192:main.c        **** {
 193:main.c        ****     CyGlobalIntEnable; 
 194:main.c        ****     UART_1_Start();
 195:main.c        ****     Ultra_Start();                          // Ultra Sonic Start function
 196:main.c        ****     while(1) {
 197:main.c        ****         //If you want to print out the value  
 198:main.c        ****         printf("distance = %5.0f\r\n", Ultra_GetDistance());
 199:main.c        ****         CyDelay(1000);
 200:main.c        ****     }
 201:main.c        **** }   
 202:main.c        **** //*/
 203:main.c        **** 
 204:main.c        **** 
 205:main.c        **** /*//nunchuk//
 206:main.c        **** int main()
 207:main.c        **** {
 208:main.c        ****     CyGlobalIntEnable; 
 209:main.c        ****     UART_1_Start();
 210:main.c        ****   
 211:main.c        ****     nunchuk_start();
 212:main.c        ****     nunchuk_init();
 213:main.c        ****     
 214:main.c        ****     for(;;)
 215:main.c        ****     {    
 216:main.c        ****         nunchuk_read();
 217:main.c        ****     }
 218:main.c        **** }   
 219:main.c        **** //*/
 220:main.c        **** 
 221:main.c        **** 
 222:main.c        **** /*//IR receiver//
 223:main.c        **** int main()
 224:main.c        **** {
 225:main.c        ****     CyGlobalIntEnable; 
 226:main.c        ****     UART_1_Start();
 227:main.c        ****     
 228:main.c        ****     unsigned int IR_val; 
 229:main.c        ****     
 230:main.c        ****     for(;;)
 231:main.c        ****     {
 232:main.c        ****        IR_val = get_IR();
 233:main.c        ****        printf("%x\r\n\n",IR_val);
 234:main.c        ****     }    
 235:main.c        ****  }   
 236:main.c        **** //*/
 237:main.c        **** 
ARM GAS  C:\Users\NHANPH~1\AppData\Local\Temp\cchcj3A1.s 			page 11


 238:main.c        **** 
 239:main.c        **** /*//Ambient light sensor//
 240:main.c        **** int main()
 241:main.c        **** {
 242:main.c        ****     CyGlobalIntEnable; 
 243:main.c        ****     UART_1_Start();
 244:main.c        ****     
 245:main.c        ****     I2C_Start();
 246:main.c        ****     
 247:main.c        ****     I2C_write(0x29,0x80,0x00);          // set to power down
 248:main.c        ****     I2C_write(0x29,0x80,0x03);          // set to power on
 249:main.c        ****     
 250:main.c        ****     for(;;)
 251:main.c        ****     {    
 252:main.c        ****         uint8 Data0Low,Data0High,Data1Low,Data1High;
 253:main.c        ****         Data0Low = I2C_read(0x29,CH0_L);
 254:main.c        ****         Data0High = I2C_read(0x29,CH0_H);
 255:main.c        ****         Data1Low = I2C_read(0x29,CH1_L);
 256:main.c        ****         Data1High = I2C_read(0x29,CH1_H);
 257:main.c        ****         
 258:main.c        ****         uint8 CH0, CH1;
 259:main.c        ****         CH0 = convert_raw(Data0Low,Data0High);      // combine Data0
 260:main.c        ****         CH1 = convert_raw(Data1Low,Data1High);      // combine Data1
 261:main.c        **** 
 262:main.c        ****         double Ch0 = CH0;
 263:main.c        ****         double Ch1 = CH1;
 264:main.c        ****         
 265:main.c        ****         double data = 0;
 266:main.c        ****         data = getLux(Ch0,Ch1);
 267:main.c        ****         
 268:main.c        ****         // If you want to print out data
 269:main.c        ****         //printf("%lf\r\n",data);    
 270:main.c        ****     }    
 271:main.c        ****  }   
 272:main.c        **** //*/
 273:main.c        **** 
 274:main.c        **** 
 275:main.c        **** /*//accelerometer//
 276:main.c        **** int main()
 277:main.c        **** {
 278:main.c        ****     CyGlobalIntEnable; 
 279:main.c        ****     UART_1_Start();
 280:main.c        ****   
 281:main.c        ****     I2C_Start();
 282:main.c        ****   
 283:main.c        ****     uint8 X_L_A, X_H_A, Y_L_A, Y_H_A, Z_L_A, Z_H_A;
 284:main.c        ****     int16 X_AXIS_A, Y_AXIS_A, Z_AXIS_A;
 285:main.c        ****     
 286:main.c        ****     I2C_write(ACCEL_MAG_ADDR, ACCEL_CTRL1_REG, 0x37);           // set accelerometer & magnetometer
 287:main.c        ****     I2C_write(ACCEL_MAG_ADDR, ACCEL_CTRL7_REG, 0x22);
 288:main.c        ****     
 289:main.c        ****     
 290:main.c        ****     for(;;)
 291:main.c        ****     {
 292:main.c        ****         //print out accelerometer output
 293:main.c        ****         X_L_A = I2C_read(ACCEL_MAG_ADDR, OUT_X_L_A);
 294:main.c        ****         X_H_A = I2C_read(ACCEL_MAG_ADDR, OUT_X_H_A);
ARM GAS  C:\Users\NHANPH~1\AppData\Local\Temp\cchcj3A1.s 			page 12


 295:main.c        ****         X_AXIS_A = convert_raw(X_L_A, X_H_A);
 296:main.c        ****         
 297:main.c        ****         Y_L_A = I2C_read(ACCEL_MAG_ADDR, OUT_Y_L_A);
 298:main.c        ****         Y_H_A = I2C_read(ACCEL_MAG_ADDR, OUT_Y_H_A);
 299:main.c        ****         Y_AXIS_A = convert_raw(Y_L_A, Y_H_A);
 300:main.c        ****         
 301:main.c        ****         Z_L_A = I2C_read(ACCEL_MAG_ADDR, OUT_Z_L_A);
 302:main.c        ****         Z_H_A = I2C_read(ACCEL_MAG_ADDR, OUT_Z_H_A);
 303:main.c        ****         Z_AXIS_A = convert_raw(Z_L_A, Z_H_A);
 304:main.c        ****         
 305:main.c        ****         printf("ACCEL: %d %d %d %d %d %d \r\n", X_L_A, X_H_A, Y_L_A, Y_H_A, Z_L_A, Z_H_A);
 306:main.c        ****         value_convert_accel(X_AXIS_A, Y_AXIS_A, Z_AXIS_A);
 307:main.c        ****         printf("\n");
 308:main.c        ****         
 309:main.c        ****         CyDelay(50);
 310:main.c        ****     }
 311:main.c        **** }   
 312:main.c        **** //*/
 313:main.c        **** 
 314:main.c        **** 
 315:main.c        **** /*//reflectance//
 316:main.c        **** int main()
 317:main.c        **** {
 318:main.c        ****     struct sensors_ ref;
 319:main.c        ****     struct sensors_ dig;
 320:main.c        ****     CyGlobalIntEnable; 
 321:main.c        ****     UART_1_Start();
 322:main.c        ****   
 323:main.c        ****     sensor_isr_StartEx(sensor_isr_handler);
 324:main.c        ****     
 325:main.c        ****     reflectance_start();
 326:main.c        **** 
 327:main.c        ****     IR_led_Write(1);
 328:main.c        ****     for(;;)
 329:main.c        ****     {
 330:main.c        ****         reflectance_read(&ref);
 331:main.c        ****         printf("%d %d %d %d \r\n", ref.l3, ref.l1, ref.r1, ref.r3);       //print out each period o
 332:main.c        ****         reflectance_digital(&dig);      //print out 0 or 1 according to results of reflectance peri
 333:main.c        ****         printf("%d %d %d %d \r\n", dig.l3, dig.l1, dig.r1, dig.r3);        //print out 0 or 1 accor
 334:main.c        ****         
 335:main.c        ****         CyDelay(500);
 336:main.c        ****     }
 337:main.c        **** }   
 338:main.c        **** //*/
 339:main.c        **** 
 340:main.c        ****  /* //motor//
 341:main.c        **** int main()
 342:main.c        **** {
 343:main.c        ****     CyGlobalIntEnable; 
 344:main.c        ****     UART_1_Start();
 345:main.c        **** 
 346:main.c        ****     motor_start();              // motor start
 347:main.c        **** 
 348:main.c        ****     motor_forward(100,2000);     // moving forward
 349:main.c        ****     motor_turn(200,50,2000);     // turn
 350:main.c        ****     motor_turn(50,200,2000);     // turn
 351:main.c        ****     motor_backward(100,2000);    // movinb backward
ARM GAS  C:\Users\NHANPH~1\AppData\Local\Temp\cchcj3A1.s 			page 13


 352:main.c        ****        
 353:main.c        ****     motor_stop();               // motor stop
 354:main.c        ****     
 355:main.c        ****     for(;;)
 356:main.c        ****     {
 357:main.c        **** 
 358:main.c        ****     }
 359:main.c        **** }
 360:main.c        **** //*/
 361:main.c        ****     
 362:main.c        **** 
 363:main.c        **** /*//gyroscope//
 364:main.c        **** int main()
 365:main.c        **** {
 366:main.c        ****     CyGlobalIntEnable; 
 367:main.c        ****     UART_1_Start();
 368:main.c        ****   
 369:main.c        ****     I2C_Start();
 370:main.c        ****   
 371:main.c        ****     uint8 X_L_G, X_H_G, Y_L_G, Y_H_G, Z_L_G, Z_H_G;
 372:main.c        ****     int16 X_AXIS_G, Y_AXIS_G, Z_AXIS_G;
 373:main.c        ****     
 374:main.c        ****     I2C_write(GYRO_ADDR, GYRO_CTRL1_REG, 0x0F);             // set gyroscope into active mode
 375:main.c        ****     I2C_write(GYRO_ADDR, GYRO_CTRL4_REG, 0x30);             // set full scale selection to 2000dps 
 376:main.c        ****     
 377:main.c        ****     for(;;)
 378:main.c        ****     {
 379:main.c        ****         //print out gyroscope output
 380:main.c        ****         X_L_G = I2C_read(GYRO_ADDR, OUT_X_AXIS_L);
 381:main.c        ****         X_H_G = I2C_read(GYRO_ADDR, OUT_X_AXIS_H);
 382:main.c        ****         X_AXIS_G = convert_raw(X_H_G, X_L_G);
 383:main.c        ****         
 384:main.c        ****         
 385:main.c        ****         Y_L_G = I2C_read(GYRO_ADDR, OUT_Y_AXIS_L);
 386:main.c        ****         Y_H_G = I2C_read(GYRO_ADDR, OUT_Y_AXIS_H);
 387:main.c        ****         Y_AXIS_G = convert_raw(Y_H_G, Y_L_G);
 388:main.c        ****         
 389:main.c        ****         
 390:main.c        ****         Z_L_G = I2C_read(GYRO_ADDR, OUT_Z_AXIS_L);
 391:main.c        ****         Z_H_G = I2C_read(GYRO_ADDR, OUT_Z_AXIS_H);
 392:main.c        ****         Z_AXIS_G = convert_raw(Z_H_G, Z_L_G);
 393:main.c        ****      
 394:main.c        ****         // If you want to print value
 395:main.c        ****         printf("%d %d %d \r\n", X_AXIS_G, Y_AXIS_G, Z_AXIS_G);
 396:main.c        ****         CyDelay(50);
 397:main.c        ****     }
 398:main.c        **** }   
 399:main.c        **** //*/
 400:main.c        **** 
 401:main.c        **** 
 402:main.c        **** /*//magnetometer//
 403:main.c        **** int main()
 404:main.c        **** {
 405:main.c        ****     CyGlobalIntEnable; 
 406:main.c        ****     UART_1_Start();
 407:main.c        ****   
 408:main.c        ****     I2C_Start();
ARM GAS  C:\Users\NHANPH~1\AppData\Local\Temp\cchcj3A1.s 			page 14


 409:main.c        ****    
 410:main.c        ****     uint8 X_L_M, X_H_M, Y_L_M, Y_H_M, Z_L_M, Z_H_M;
 411:main.c        ****     int16 X_AXIS, Y_AXIS, Z_AXIS;
 412:main.c        ****     
 413:main.c        ****     I2C_write(GYRO_ADDR, GYRO_CTRL1_REG, 0x0F);             // set gyroscope into active mode
 414:main.c        ****     I2C_write(GYRO_ADDR, GYRO_CTRL4_REG, 0x30);             // set full scale selection to 2000dps
 415:main.c        ****     I2C_write(ACCEL_MAG_ADDR, ACCEL_CTRL1_REG, 0x37);           // set accelerometer & magnetometer
 416:main.c        ****     I2C_write(ACCEL_MAG_ADDR, ACCEL_CTRL7_REG, 0x22);
 417:main.c        ****     
 418:main.c        ****     
 419:main.c        ****     for(;;)
 420:main.c        ****     {
 421:main.c        ****         X_L_M = I2C_read(ACCEL_MAG_ADDR, OUT_X_L_M);
 422:main.c        ****         X_H_M = I2C_read(ACCEL_MAG_ADDR, OUT_X_H_M);
 423:main.c        ****         X_AXIS = convert_raw(X_L_M, X_H_M);
 424:main.c        ****         
 425:main.c        ****         Y_L_M = I2C_read(ACCEL_MAG_ADDR, OUT_Y_L_M);
 426:main.c        ****         Y_H_M = I2C_read(ACCEL_MAG_ADDR, OUT_Y_H_M);
 427:main.c        ****         Y_AXIS = convert_raw(Y_L_M, Y_H_M);
 428:main.c        ****         
 429:main.c        ****         Z_L_M = I2C_read(ACCEL_MAG_ADDR, OUT_Z_L_M);
 430:main.c        ****         Z_H_M = I2C_read(ACCEL_MAG_ADDR, OUT_Z_H_M);
 431:main.c        ****         Z_AXIS = convert_raw(Z_L_M, Z_H_M);
 432:main.c        ****         
 433:main.c        ****         heading(X_AXIS, Y_AXIS);
 434:main.c        ****         printf("MAGNET: %d %d %d %d %d %d \r\n", X_L_M, X_H_M, Y_L_M, Y_H_M, Z_L_M, Z_H_M);
 435:main.c        ****         printf("%d %d %d \r\n", X_AXIS,Y_AXIS, Z_AXIS);
 436:main.c        ****         CyDelay(50);      
 437:main.c        ****     }
 438:main.c        **** }   
 439:main.c        **** //*/
 440:main.c        **** 
 441:main.c        **** 
 442:main.c        **** #if 0
 443:main.c        **** int rread(void)
 444:main.c        **** {
 445:main.c        ****     SC0_SetDriveMode(PIN_DM_STRONG);
 446:main.c        ****     SC0_Write(1);
 447:main.c        ****     CyDelayUs(10);
 448:main.c        ****     SC0_SetDriveMode(PIN_DM_DIG_HIZ);
 449:main.c        ****     Timer_1_Start();
 450:main.c        ****     uint16_t start = Timer_1_ReadCounter();
 451:main.c        ****     uint16_t end = 0;
 452:main.c        ****     while(!(Timer_1_ReadStatusRegister() & Timer_1_STATUS_TC)) {
 453:main.c        ****         if(SC0_Read() == 0 && end == 0) {
 454:main.c        ****             end = Timer_1_ReadCounter();
 455:main.c        ****         }
 456:main.c        ****     }
 457:main.c        ****     Timer_1_Stop();
 458:main.c        ****     
 459:main.c        ****     return (start - end);
 460:main.c        **** }
 461:main.c        **** #endif
 462:main.c        **** 
 463:main.c        **** /* Don't remove the functions below */
 464:main.c        **** int _write(int file, char *ptr, int len)
 465:main.c        **** {
ARM GAS  C:\Users\NHANPH~1\AppData\Local\Temp\cchcj3A1.s 			page 15


 297              		.loc 1 465 0
 298              		.cfi_startproc
 299              		@ args = 0, pretend = 0, frame = 0
 300              		@ frame_needed = 0, uses_anonymous_args = 0
 301              	.LVL36:
 302 0000 F8B5     		push	{r3, r4, r5, r6, r7, lr}
 303              		.cfi_def_cfa_offset 24
 304              		.cfi_offset 3, -24
 305              		.cfi_offset 4, -20
 306              		.cfi_offset 5, -16
 307              		.cfi_offset 6, -12
 308              		.cfi_offset 7, -8
 309              		.cfi_offset 14, -4
 310 0002 0C46     		mov	r4, r1
 311 0004 1746     		mov	r7, r2
 312              	.LVL37:
 466:main.c        ****     (void)file; /* Parameter is not used, suppress unused argument warning */
 467:main.c        **** 	int n;
 468:main.c        **** 	for(n = 0; n < len; n++) {
 313              		.loc 1 468 0
 314 0006 0025     		movs	r5, #0
 315 0008 0BE0     		b	.L24
 316              	.LVL38:
 317              	.L26:
 469:main.c        ****         if(*ptr == '\n') UART_1_PutChar('\r');
 318              		.loc 1 469 0
 319 000a 2378     		ldrb	r3, [r4]	@ zero_extendqisi2
 320 000c 0A2B     		cmp	r3, #10
 321 000e 02D1     		bne	.L25
 322              		.loc 1 469 0 is_stmt 0 discriminator 1
 323 0010 0D20     		movs	r0, #13
 324 0012 FFF7FEFF 		bl	UART_1_PutChar
 325              	.LVL39:
 326              	.L25:
 470:main.c        **** 		UART_1_PutChar(*ptr++);
 327              		.loc 1 470 0 is_stmt 1 discriminator 2
 328 0016 661C     		adds	r6, r4, #1
 329              	.LVL40:
 330 0018 2078     		ldrb	r0, [r4]	@ zero_extendqisi2
 331 001a FFF7FEFF 		bl	UART_1_PutChar
 332              	.LVL41:
 468:main.c        ****         if(*ptr == '\n') UART_1_PutChar('\r');
 333              		.loc 1 468 0 discriminator 2
 334 001e 0135     		adds	r5, r5, #1
 335              	.LVL42:
 336              		.loc 1 470 0 discriminator 2
 337 0020 3446     		mov	r4, r6
 338              	.LVL43:
 339              	.L24:
 468:main.c        ****         if(*ptr == '\n') UART_1_PutChar('\r');
 340              		.loc 1 468 0 discriminator 1
 341 0022 BD42     		cmp	r5, r7
 342 0024 F1DB     		blt	.L26
 471:main.c        **** 	}
 472:main.c        **** 	return len;
 473:main.c        **** }
 343              		.loc 1 473 0
ARM GAS  C:\Users\NHANPH~1\AppData\Local\Temp\cchcj3A1.s 			page 16


 344 0026 3846     		mov	r0, r7
 345 0028 F8BD     		pop	{r3, r4, r5, r6, r7, pc}
 346              		.cfi_endproc
 347              	.LFE65:
 348              		.size	_write, .-_write
 349 002a 00BF     		.section	.text._read,"ax",%progbits
 350              		.align	2
 351              		.global	_read
 352              		.thumb
 353              		.thumb_func
 354              		.type	_read, %function
 355              	_read:
 356              	.LFB66:
 474:main.c        **** 
 475:main.c        **** int _read (int file, char *ptr, int count)
 476:main.c        **** {
 357              		.loc 1 476 0
 358              		.cfi_startproc
 359              		@ args = 0, pretend = 0, frame = 0
 360              		@ frame_needed = 0, uses_anonymous_args = 0
 361              	.LVL44:
 362 0000 F8B5     		push	{r3, r4, r5, r6, r7, lr}
 363              		.cfi_def_cfa_offset 24
 364              		.cfi_offset 3, -24
 365              		.cfi_offset 4, -20
 366              		.cfi_offset 5, -16
 367              		.cfi_offset 6, -12
 368              		.cfi_offset 7, -8
 369              		.cfi_offset 14, -4
 370 0002 0F46     		mov	r7, r1
 371 0004 1446     		mov	r4, r2
 372              	.LVL45:
 477:main.c        ****     int chs = 0;
 373              		.loc 1 477 0
 374 0006 0026     		movs	r6, #0
 478:main.c        ****     char ch;
 479:main.c        ****  
 480:main.c        ****     (void)file; /* Parameter is not used, suppress unused argument warning */
 481:main.c        ****     while(count > 0) {
 375              		.loc 1 481 0
 376 0008 12E0     		b	.L30
 377              	.LVL46:
 378              	.L33:
 482:main.c        ****         ch = UART_1_GetChar();
 379              		.loc 1 482 0
 380 000a FFF7FEFF 		bl	UART_1_GetChar
 381              	.LVL47:
 483:main.c        ****         if(ch != 0) {
 382              		.loc 1 483 0
 383 000e 0546     		mov	r5, r0
 384 0010 70B1     		cbz	r0, .L30
 484:main.c        ****             UART_1_PutChar(ch);
 385              		.loc 1 484 0
 386 0012 FFF7FEFF 		bl	UART_1_PutChar
 387              	.LVL48:
 485:main.c        ****             chs++;
 388              		.loc 1 485 0
ARM GAS  C:\Users\NHANPH~1\AppData\Local\Temp\cchcj3A1.s 			page 17


 389 0016 0136     		adds	r6, r6, #1
 390              	.LVL49:
 486:main.c        ****             if(ch == '\r') {
 391              		.loc 1 486 0
 392 0018 0D2D     		cmp	r5, #13
 393 001a 03D1     		bne	.L31
 394              	.LVL50:
 487:main.c        ****                 ch = '\n';
 488:main.c        ****                 UART_1_PutChar(ch);
 395              		.loc 1 488 0
 396 001c 0A20     		movs	r0, #10
 397 001e FFF7FEFF 		bl	UART_1_PutChar
 398              	.LVL51:
 487:main.c        ****                 ch = '\n';
 399              		.loc 1 487 0
 400 0022 0A25     		movs	r5, #10
 401              	.LVL52:
 402              	.L31:
 489:main.c        ****             }
 490:main.c        ****             *ptr++ = ch;
 403              		.loc 1 490 0
 404 0024 7B1C     		adds	r3, r7, #1
 405              	.LVL53:
 406 0026 3D70     		strb	r5, [r7]
 491:main.c        ****             count--;
 407              		.loc 1 491 0
 408 0028 013C     		subs	r4, r4, #1
 409              	.LVL54:
 492:main.c        ****             if(ch == '\n') break;
 410              		.loc 1 492 0
 411 002a 0A2D     		cmp	r5, #10
 412 002c 02D0     		beq	.L32
 490:main.c        ****             count--;
 413              		.loc 1 490 0
 414 002e 1F46     		mov	r7, r3
 415              	.LVL55:
 416              	.L30:
 481:main.c        ****         ch = UART_1_GetChar();
 417              		.loc 1 481 0
 418 0030 002C     		cmp	r4, #0
 419 0032 EADC     		bgt	.L33
 420              	.LVL56:
 421              	.L32:
 493:main.c        ****         }
 494:main.c        ****     }
 495:main.c        ****     return chs;
 496:main.c        **** }
 422              		.loc 1 496 0
 423 0034 3046     		mov	r0, r6
 424 0036 F8BD     		pop	{r3, r4, r5, r6, r7, pc}
 425              		.cfi_endproc
 426              	.LFE66:
 427              		.size	_read, .-_read
 428              		.section	.rodata.str1.4,"aMS",%progbits,1
 429              		.align	2
 430              	.LC0:
 431 0000 566F6C74 		.ascii	"Volts: %f\012\000"
ARM GAS  C:\Users\NHANPH~1\AppData\Local\Temp\cchcj3A1.s 			page 18


 431      733A2025 
 431      660A00
 432 000b 00       		.space	1
 433              	.LC1:
 434 000c 25642025 		.ascii	"%d %d %d %d \015\012\000"
 434      64202564 
 434      20256420 
 434      0D0A00
 435 001b 00       		.text
 436              	.Letext0:
 437              		.file 2 "c:\\program files (x86)\\cypress\\psoc creator\\4.0\\psoc creator\\import\\gnu\\arm\\4.9.
 438              		.file 3 "c:\\program files (x86)\\cypress\\psoc creator\\4.0\\psoc creator\\import\\gnu\\arm\\4.9.
 439              		.file 4 "Generated_Source\\PSoC5/cytypes.h"
 440              		.file 5 ".\\ZumoLibrary/Reflectance.h"
 441              		.file 6 "Generated_Source\\PSoC5/ADC_Battery.h"
 442              		.file 7 "c:\\program files (x86)\\cypress\\psoc creator\\4.0\\psoc creator\\import\\gnu\\arm\\4.9.
 443              		.file 8 ".\\ZumoLibrary/Beep.h"
 444              		.file 9 "Generated_Source\\PSoC5/CyLib.h"
 445              		.file 10 "Generated_Source\\PSoC5/UART_1.h"
 446              		.file 11 "Generated_Source\\PSoC5/IR_led.h"
 447              		.file 12 "Generated_Source\\PSoC5/sensor_isr.h"
 448              		.file 13 ".\\ZumoLibrary/Motor.h"
 449              		.file 14 ".\\ZumoLibrary/IR.h"
 450              		.file 15 "Sumoing.h"
 451              		.file 16 "Generated_Source\\PSoC5/core_cm3.h"