ARM GAS  C:\Users\NHANPH~1\AppData\Local\Temp\ccBPW8Fh.s 			page 1


   1              		.syntax unified
   2              		.cpu cortex-m3
   3              		.fpu softvfp
   4              		.eabi_attribute 20, 1
   5              		.eabi_attribute 21, 1
   6              		.eabi_attribute 23, 3
   7              		.eabi_attribute 24, 1
   8              		.eabi_attribute 25, 1
   9              		.eabi_attribute 26, 1
  10              		.eabi_attribute 30, 1
  11              		.eabi_attribute 34, 1
  12              		.eabi_attribute 18, 4
  13              		.thumb
  14              		.file	"Motor.c"
  15              		.text
  16              	.Ltext0:
  17              		.cfi_sections	.debug_frame
  18              		.section	.text.motor_start,"ax",%progbits
  19              		.align	2
  20              		.global	motor_start
  21              		.thumb
  22              		.thumb_func
  23              		.type	motor_start, %function
  24              	motor_start:
  25              	.LFB63:
  26              		.file 1 "ZumoLibrary\\Motor.c"
   1:ZumoLibrary/Motor.c **** /**
   2:ZumoLibrary/Motor.c ****  * @file    Motor.c
   3:ZumoLibrary/Motor.c ****  * @brief   Basic methods for operating motor sensor. For more details, please refer to Motor.h fil
   4:ZumoLibrary/Motor.c ****  * @details included in Zumo shield
   5:ZumoLibrary/Motor.c **** */
   6:ZumoLibrary/Motor.c **** #include "Motor.h"
   7:ZumoLibrary/Motor.c **** 
   8:ZumoLibrary/Motor.c **** 
   9:ZumoLibrary/Motor.c **** /**
  10:ZumoLibrary/Motor.c **** * @brief    Starting motor sensors
  11:ZumoLibrary/Motor.c **** * @details  
  12:ZumoLibrary/Motor.c **** */
  13:ZumoLibrary/Motor.c **** void motor_start()
  14:ZumoLibrary/Motor.c **** {
  27              		.loc 1 14 0
  28              		.cfi_startproc
  29              		@ args = 0, pretend = 0, frame = 0
  30              		@ frame_needed = 0, uses_anonymous_args = 0
  31 0000 08B5     		push	{r3, lr}
  32              		.cfi_def_cfa_offset 8
  33              		.cfi_offset 3, -8
  34              		.cfi_offset 14, -4
  15:ZumoLibrary/Motor.c ****     PWM_Start();
  35              		.loc 1 15 0
  36 0002 FFF7FEFF 		bl	PWM_Start
  37              	.LVL0:
  38 0006 08BD     		pop	{r3, pc}
  39              		.cfi_endproc
  40              	.LFE63:
  41              		.size	motor_start, .-motor_start
  42              		.section	.text.motor_stop,"ax",%progbits
ARM GAS  C:\Users\NHANPH~1\AppData\Local\Temp\ccBPW8Fh.s 			page 2


  43              		.align	2
  44              		.global	motor_stop
  45              		.thumb
  46              		.thumb_func
  47              		.type	motor_stop, %function
  48              	motor_stop:
  49              	.LFB64:
  16:ZumoLibrary/Motor.c **** }
  17:ZumoLibrary/Motor.c **** 
  18:ZumoLibrary/Motor.c **** 
  19:ZumoLibrary/Motor.c **** /**
  20:ZumoLibrary/Motor.c **** * @brief    Stopping motor sensors
  21:ZumoLibrary/Motor.c **** * @details
  22:ZumoLibrary/Motor.c **** */
  23:ZumoLibrary/Motor.c **** void motor_stop()
  24:ZumoLibrary/Motor.c **** {
  50              		.loc 1 24 0
  51              		.cfi_startproc
  52              		@ args = 0, pretend = 0, frame = 0
  53              		@ frame_needed = 0, uses_anonymous_args = 0
  54 0000 08B5     		push	{r3, lr}
  55              		.cfi_def_cfa_offset 8
  56              		.cfi_offset 3, -8
  57              		.cfi_offset 14, -4
  25:ZumoLibrary/Motor.c ****     PWM_Stop();
  58              		.loc 1 25 0
  59 0002 FFF7FEFF 		bl	PWM_Stop
  60              	.LVL1:
  61 0006 08BD     		pop	{r3, pc}
  62              		.cfi_endproc
  63              	.LFE64:
  64              		.size	motor_stop, .-motor_stop
  65              		.section	.text.motor_forward,"ax",%progbits
  66              		.align	2
  67              		.global	motor_forward
  68              		.thumb
  69              		.thumb_func
  70              		.type	motor_forward, %function
  71              	motor_forward:
  72              	.LFB65:
  26:ZumoLibrary/Motor.c **** }
  27:ZumoLibrary/Motor.c **** 
  28:ZumoLibrary/Motor.c **** 
  29:ZumoLibrary/Motor.c **** /**
  30:ZumoLibrary/Motor.c **** * @brief    Moving motors forward
  31:ZumoLibrary/Motor.c **** * @details  giveing same speed to each side of PWM to make motors go forward
  32:ZumoLibrary/Motor.c **** * @param    uint8 speed : speed value
  33:ZumoLibrary/Motor.c **** * @param    uint32 delay : delay time
  34:ZumoLibrary/Motor.c **** */
  35:ZumoLibrary/Motor.c **** void motor_forward(uint8 speed,uint32 delay)
  36:ZumoLibrary/Motor.c **** {
  73              		.loc 1 36 0
  74              		.cfi_startproc
  75              		@ args = 0, pretend = 0, frame = 0
  76              		@ frame_needed = 0, uses_anonymous_args = 0
  77              	.LVL2:
  78 0000 38B5     		push	{r3, r4, r5, lr}
ARM GAS  C:\Users\NHANPH~1\AppData\Local\Temp\ccBPW8Fh.s 			page 3


  79              		.cfi_def_cfa_offset 16
  80              		.cfi_offset 3, -16
  81              		.cfi_offset 4, -12
  82              		.cfi_offset 5, -8
  83              		.cfi_offset 14, -4
  84 0002 0446     		mov	r4, r0
  85 0004 0D46     		mov	r5, r1
  37:ZumoLibrary/Motor.c ****     MotorDirLeft_Write(0);      // set LeftMotor forward mode
  86              		.loc 1 37 0
  87 0006 0020     		movs	r0, #0
  88              	.LVL3:
  89 0008 FFF7FEFF 		bl	MotorDirLeft_Write
  90              	.LVL4:
  38:ZumoLibrary/Motor.c ****     MotorDirRight_Write(0);     // set RightMotor forward mode
  91              		.loc 1 38 0
  92 000c 0020     		movs	r0, #0
  93 000e FFF7FEFF 		bl	MotorDirRight_Write
  94              	.LVL5:
  39:ZumoLibrary/Motor.c ****     PWM_WriteCompare1(speed); 
  95              		.loc 1 39 0
  96 0012 2046     		mov	r0, r4
  97 0014 FFF7FEFF 		bl	PWM_WriteCompare1
  98              	.LVL6:
  40:ZumoLibrary/Motor.c ****     PWM_WriteCompare2(speed); 
  99              		.loc 1 40 0
 100 0018 2046     		mov	r0, r4
 101 001a FFF7FEFF 		bl	PWM_WriteCompare2
 102              	.LVL7:
  41:ZumoLibrary/Motor.c ****     CyDelay(delay);
 103              		.loc 1 41 0
 104 001e 2846     		mov	r0, r5
 105 0020 FFF7FEFF 		bl	CyDelay
 106              	.LVL8:
 107 0024 38BD     		pop	{r3, r4, r5, pc}
 108              		.cfi_endproc
 109              	.LFE65:
 110              		.size	motor_forward, .-motor_forward
 111 0026 00BF     		.section	.text.motor_turn,"ax",%progbits
 112              		.align	2
 113              		.global	motor_turn
 114              		.thumb
 115              		.thumb_func
 116              		.type	motor_turn, %function
 117              	motor_turn:
 118              	.LFB66:
  42:ZumoLibrary/Motor.c **** }
  43:ZumoLibrary/Motor.c **** 
  44:ZumoLibrary/Motor.c **** 
  45:ZumoLibrary/Motor.c **** /**
  46:ZumoLibrary/Motor.c **** * @brief    Moving motors to make a turn 
  47:ZumoLibrary/Motor.c **** * @details  moving left when l_speed < r_speed or moving right when l_speed > r_speed
  48:ZumoLibrary/Motor.c **** * @param    uint8 l_speed : left motor speed value
  49:ZumoLibrary/Motor.c **** * @param    uint8 r_speed : right motor speed value
  50:ZumoLibrary/Motor.c **** * @param    uint32 delay : delay time
  51:ZumoLibrary/Motor.c **** */
  52:ZumoLibrary/Motor.c **** void motor_turn(uint8 l_speed, uint8 r_speed, uint32 delay)
  53:ZumoLibrary/Motor.c **** {
ARM GAS  C:\Users\NHANPH~1\AppData\Local\Temp\ccBPW8Fh.s 			page 4


 119              		.loc 1 53 0
 120              		.cfi_startproc
 121              		@ args = 0, pretend = 0, frame = 0
 122              		@ frame_needed = 0, uses_anonymous_args = 0
 123              	.LVL9:
 124 0000 38B5     		push	{r3, r4, r5, lr}
 125              		.cfi_def_cfa_offset 16
 126              		.cfi_offset 3, -16
 127              		.cfi_offset 4, -12
 128              		.cfi_offset 5, -8
 129              		.cfi_offset 14, -4
 130 0002 0D46     		mov	r5, r1
 131 0004 1446     		mov	r4, r2
  54:ZumoLibrary/Motor.c ****     PWM_WriteCompare1(l_speed); 
 132              		.loc 1 54 0
 133 0006 FFF7FEFF 		bl	PWM_WriteCompare1
 134              	.LVL10:
  55:ZumoLibrary/Motor.c ****     PWM_WriteCompare2(r_speed); 
 135              		.loc 1 55 0
 136 000a 2846     		mov	r0, r5
 137 000c FFF7FEFF 		bl	PWM_WriteCompare2
 138              	.LVL11:
  56:ZumoLibrary/Motor.c ****     CyDelay(delay);
 139              		.loc 1 56 0
 140 0010 2046     		mov	r0, r4
 141 0012 FFF7FEFF 		bl	CyDelay
 142              	.LVL12:
 143 0016 38BD     		pop	{r3, r4, r5, pc}
 144              		.cfi_endproc
 145              	.LFE66:
 146              		.size	motor_turn, .-motor_turn
 147              		.section	.text.motor_turn_adv,"ax",%progbits
 148              		.align	2
 149              		.global	motor_turn_adv
 150              		.thumb
 151              		.thumb_func
 152              		.type	motor_turn_adv, %function
 153              	motor_turn_adv:
 154              	.LFB67:
  57:ZumoLibrary/Motor.c **** }
  58:ZumoLibrary/Motor.c **** 
  59:ZumoLibrary/Motor.c **** /**
  60:ZumoLibrary/Motor.c **** * @brief    Moving motors to make a turn 
  61:ZumoLibrary/Motor.c **** * @details  moving left when l_speed < r_speed or moving right when l_speed > r_speed
  62:ZumoLibrary/Motor.c **** * @param    uint8 l_speed : left motor speed value
  63:ZumoLibrary/Motor.c **** * @param    uint8 l_backward : 1 if backward, 0 if forward, left motor
  64:ZumoLibrary/Motor.c **** * @param    uint8 r_speed : right motor speed value
  65:ZumoLibrary/Motor.c **** * @param    uint8 r_backward : 1 if backward, 0 if forward, right motor
  66:ZumoLibrary/Motor.c **** * @param    uint32 delay : delay time
  67:ZumoLibrary/Motor.c **** */
  68:ZumoLibrary/Motor.c **** void motor_turn_adv(uint8 l_speed, uint8 l_backward, 
  69:ZumoLibrary/Motor.c ****             uint8 r_speed, uint8 r_backward, uint32 delay)
  70:ZumoLibrary/Motor.c **** {
 155              		.loc 1 70 0
 156              		.cfi_startproc
 157              		@ args = 4, pretend = 0, frame = 0
 158              		@ frame_needed = 0, uses_anonymous_args = 0
ARM GAS  C:\Users\NHANPH~1\AppData\Local\Temp\ccBPW8Fh.s 			page 5


 159              	.LVL13:
 160 0000 70B5     		push	{r4, r5, r6, lr}
 161              		.cfi_def_cfa_offset 16
 162              		.cfi_offset 4, -16
 163              		.cfi_offset 5, -12
 164              		.cfi_offset 6, -8
 165              		.cfi_offset 14, -4
 166 0002 0546     		mov	r5, r0
 167 0004 1446     		mov	r4, r2
 168 0006 1E46     		mov	r6, r3
  71:ZumoLibrary/Motor.c ****     MotorDirLeft_Write(l_backward);      // set LeftMotor backward mode if 1
 169              		.loc 1 71 0
 170 0008 0846     		mov	r0, r1
 171              	.LVL14:
 172 000a FFF7FEFF 		bl	MotorDirLeft_Write
 173              	.LVL15:
  72:ZumoLibrary/Motor.c ****     MotorDirRight_Write(r_backward);     // set RightMotor backward mode if 1
 174              		.loc 1 72 0
 175 000e 3046     		mov	r0, r6
 176 0010 FFF7FEFF 		bl	MotorDirRight_Write
 177              	.LVL16:
  73:ZumoLibrary/Motor.c ****     PWM_WriteCompare1(l_speed); 
 178              		.loc 1 73 0
 179 0014 2846     		mov	r0, r5
 180 0016 FFF7FEFF 		bl	PWM_WriteCompare1
 181              	.LVL17:
  74:ZumoLibrary/Motor.c ****     PWM_WriteCompare2(r_speed); 
 182              		.loc 1 74 0
 183 001a 2046     		mov	r0, r4
 184 001c FFF7FEFF 		bl	PWM_WriteCompare2
 185              	.LVL18:
  75:ZumoLibrary/Motor.c ****     CyDelay(delay);
 186              		.loc 1 75 0
 187 0020 0498     		ldr	r0, [sp, #16]
 188 0022 FFF7FEFF 		bl	CyDelay
 189              	.LVL19:
 190 0026 70BD     		pop	{r4, r5, r6, pc}
 191              		.cfi_endproc
 192              	.LFE67:
 193              		.size	motor_turn_adv, .-motor_turn_adv
 194              		.section	.text.motor_backward,"ax",%progbits
 195              		.align	2
 196              		.global	motor_backward
 197              		.thumb
 198              		.thumb_func
 199              		.type	motor_backward, %function
 200              	motor_backward:
 201              	.LFB68:
  76:ZumoLibrary/Motor.c **** }
  77:ZumoLibrary/Motor.c **** 
  78:ZumoLibrary/Motor.c **** 
  79:ZumoLibrary/Motor.c **** /**
  80:ZumoLibrary/Motor.c **** * @brief    Moving motors backward
  81:ZumoLibrary/Motor.c **** * @details  setting backward mode to each motors and gives same speed to each side of PWM
  82:ZumoLibrary/Motor.c **** * @param    uint8 speed : speed value
  83:ZumoLibrary/Motor.c **** * @param    uint32 delay : delay time
  84:ZumoLibrary/Motor.c **** */
ARM GAS  C:\Users\NHANPH~1\AppData\Local\Temp\ccBPW8Fh.s 			page 6


  85:ZumoLibrary/Motor.c **** void motor_backward(uint8 speed,uint32 delay)
  86:ZumoLibrary/Motor.c **** {
 202              		.loc 1 86 0
 203              		.cfi_startproc
 204              		@ args = 0, pretend = 0, frame = 0
 205              		@ frame_needed = 0, uses_anonymous_args = 0
 206              	.LVL20:
 207 0000 38B5     		push	{r3, r4, r5, lr}
 208              		.cfi_def_cfa_offset 16
 209              		.cfi_offset 3, -16
 210              		.cfi_offset 4, -12
 211              		.cfi_offset 5, -8
 212              		.cfi_offset 14, -4
 213 0002 0446     		mov	r4, r0
 214 0004 0D46     		mov	r5, r1
  87:ZumoLibrary/Motor.c ****     MotorDirLeft_Write(1);      // set LeftMotor backward mode
 215              		.loc 1 87 0
 216 0006 0120     		movs	r0, #1
 217              	.LVL21:
 218 0008 FFF7FEFF 		bl	MotorDirLeft_Write
 219              	.LVL22:
  88:ZumoLibrary/Motor.c ****     MotorDirRight_Write(1);     // set RightMotor backward mode
 220              		.loc 1 88 0
 221 000c 0120     		movs	r0, #1
 222 000e FFF7FEFF 		bl	MotorDirRight_Write
 223              	.LVL23:
  89:ZumoLibrary/Motor.c ****     PWM_WriteCompare1(speed); 
 224              		.loc 1 89 0
 225 0012 2046     		mov	r0, r4
 226 0014 FFF7FEFF 		bl	PWM_WriteCompare1
 227              	.LVL24:
  90:ZumoLibrary/Motor.c ****     PWM_WriteCompare2(speed); 
 228              		.loc 1 90 0
 229 0018 2046     		mov	r0, r4
 230 001a FFF7FEFF 		bl	PWM_WriteCompare2
 231              	.LVL25:
  91:ZumoLibrary/Motor.c ****     CyDelay(delay);
 232              		.loc 1 91 0
 233 001e 2846     		mov	r0, r5
 234 0020 FFF7FEFF 		bl	CyDelay
 235              	.LVL26:
 236 0024 38BD     		pop	{r3, r4, r5, pc}
 237              		.cfi_endproc
 238              	.LFE68:
 239              		.size	motor_backward, .-motor_backward
 240 0026 00BF     		.text
 241              	.Letext0:
 242              		.file 2 "c:\\program files (x86)\\cypress\\psoc creator\\4.0\\psoc creator\\import\\gnu\\arm\\4.9.
 243              		.file 3 "c:\\program files (x86)\\cypress\\psoc creator\\4.0\\psoc creator\\import\\gnu\\arm\\4.9.
 244              		.file 4 "Generated_Source\\PSoC5/cytypes.h"
 245              		.file 5 "Generated_Source\\PSoC5/PWM.h"
 246              		.file 6 "Generated_Source\\PSoC5/MotorDirLeft.h"
 247              		.file 7 "Generated_Source\\PSoC5/MotorDirRight.h"
 248              		.file 8 "Generated_Source\\PSoC5/core_cm3.h"
 249              		.file 9 "Generated_Source\\PSoC5/CyLib.h"