ARM GAS  C:\Users\NHANPH~1\AppData\Local\Temp\cc87YJJB.s 			page 1


   1              		.syntax unified
   2              		.cpu cortex-m3
   3              		.fpu softvfp
   4              		.eabi_attribute 20, 1
   5              		.eabi_attribute 21, 1
   6              		.eabi_attribute 23, 3
   7              		.eabi_attribute 24, 1
   8              		.eabi_attribute 25, 1
   9              		.eabi_attribute 26, 1
  10              		.eabi_attribute 30, 1
  11              		.eabi_attribute 34, 1
  12              		.eabi_attribute 18, 4
  13              		.thumb
  14              		.file	"Nunchuk.c"
  15              		.text
  16              	.Ltext0:
  17              		.cfi_sections	.debug_frame
  18              		.section	.text.nunchuk_start,"ax",%progbits
  19              		.align	2
  20              		.global	nunchuk_start
  21              		.thumb
  22              		.thumb_func
  23              		.type	nunchuk_start, %function
  24              	nunchuk_start:
  25              	.LFB63:
  26              		.file 1 "ZumoLibrary\\Nunchuk.c"
   1:ZumoLibrary/Nunchuk.c **** /**
   2:ZumoLibrary/Nunchuk.c ****  * @file    Nunchuk.c
   3:ZumoLibrary/Nunchuk.c ****  * @brief   Basic methods for operating wii nunchuck. For more details, please refer to Nunchuk.h f
   4:ZumoLibrary/Nunchuk.c ****  * @details 
   5:ZumoLibrary/Nunchuk.c **** */
   6:ZumoLibrary/Nunchuk.c **** #include "nunchuk.h"
   7:ZumoLibrary/Nunchuk.c **** 
   8:ZumoLibrary/Nunchuk.c **** static int x,y,z;
   9:ZumoLibrary/Nunchuk.c **** 
  10:ZumoLibrary/Nunchuk.c **** /**
  11:ZumoLibrary/Nunchuk.c **** * @brief    Start Nunchuk
  12:ZumoLibrary/Nunchuk.c **** * @details
  13:ZumoLibrary/Nunchuk.c **** */
  14:ZumoLibrary/Nunchuk.c **** void nunchuk_start()
  15:ZumoLibrary/Nunchuk.c **** {
  27              		.loc 1 15 0
  28              		.cfi_startproc
  29              		@ args = 0, pretend = 0, frame = 0
  30              		@ frame_needed = 0, uses_anonymous_args = 0
  31 0000 08B5     		push	{r3, lr}
  32              		.cfi_def_cfa_offset 8
  33              		.cfi_offset 3, -8
  34              		.cfi_offset 14, -4
  16:ZumoLibrary/Nunchuk.c ****     I2C_Start();
  35              		.loc 1 16 0
  36 0002 FFF7FEFF 		bl	I2C_Start
  37              	.LVL0:
  38 0006 08BD     		pop	{r3, pc}
  39              		.cfi_endproc
  40              	.LFE63:
  41              		.size	nunchuk_start, .-nunchuk_start
ARM GAS  C:\Users\NHANPH~1\AppData\Local\Temp\cc87YJJB.s 			page 2


  42              		.section	.text.nunchuk_init,"ax",%progbits
  43              		.align	2
  44              		.global	nunchuk_init
  45              		.thumb
  46              		.thumb_func
  47              		.type	nunchuk_init, %function
  48              	nunchuk_init:
  49              	.LFB64:
  17:ZumoLibrary/Nunchuk.c **** }
  18:ZumoLibrary/Nunchuk.c **** 
  19:ZumoLibrary/Nunchuk.c **** 
  20:ZumoLibrary/Nunchuk.c **** /**
  21:ZumoLibrary/Nunchuk.c **** * @brief    Initializing Nunchuk
  22:ZumoLibrary/Nunchuk.c **** * @details  write value(0x00) to register(address - 0x40) to initialize nunchuk
  23:ZumoLibrary/Nunchuk.c **** */
  24:ZumoLibrary/Nunchuk.c **** void nunchuk_init()
  25:ZumoLibrary/Nunchuk.c **** {
  50              		.loc 1 25 0
  51              		.cfi_startproc
  52              		@ args = 0, pretend = 0, frame = 8
  53              		@ frame_needed = 0, uses_anonymous_args = 0
  54 0000 10B5     		push	{r4, lr}
  55              		.cfi_def_cfa_offset 8
  56              		.cfi_offset 4, -8
  57              		.cfi_offset 14, -4
  58 0002 82B0     		sub	sp, sp, #8
  59              		.cfi_def_cfa_offset 16
  26:ZumoLibrary/Nunchuk.c ****     uint8_t buf[2] = { 0x40, 0x00 };
  60              		.loc 1 26 0
  61 0004 4023     		movs	r3, #64
  62 0006 8DF80430 		strb	r3, [sp, #4]
  63 000a 0024     		movs	r4, #0
  64 000c 8DF80540 		strb	r4, [sp, #5]
  27:ZumoLibrary/Nunchuk.c ****     uint8_t status;
  28:ZumoLibrary/Nunchuk.c ****     I2C_MasterClearStatus();
  65              		.loc 1 28 0
  66 0010 FFF7FEFF 		bl	I2C_MasterClearStatus
  67              	.LVL1:
  29:ZumoLibrary/Nunchuk.c ****     CyDelay(100);
  68              		.loc 1 29 0
  69 0014 6420     		movs	r0, #100
  70 0016 FFF7FEFF 		bl	CyDelay
  71              	.LVL2:
  30:ZumoLibrary/Nunchuk.c ****     status = I2C_MasterWriteBuf(0x52, buf, 2, I2C_MODE_COMPLETE_XFER);
  72              		.loc 1 30 0
  73 001a 5220     		movs	r0, #82
  74 001c 01A9     		add	r1, sp, #4
  75 001e 0222     		movs	r2, #2
  76 0020 2346     		mov	r3, r4
  77 0022 FFF7FEFF 		bl	I2C_MasterWriteBuf
  78              	.LVL3:
  79              	.L4:
  31:ZumoLibrary/Nunchuk.c ****     while(((status = I2C_MasterStatus()) & I2C_MSTAT_WR_CMPLT) == 0);
  80              		.loc 1 31 0 discriminator 1
  81 0026 FFF7FEFF 		bl	I2C_MasterStatus
  82              	.LVL4:
  83 002a 10F0020F 		tst	r0, #2
ARM GAS  C:\Users\NHANPH~1\AppData\Local\Temp\cc87YJJB.s 			page 3


  84 002e FAD0     		beq	.L4
  32:ZumoLibrary/Nunchuk.c ****     CyDelay(100);
  85              		.loc 1 32 0
  86 0030 6420     		movs	r0, #100
  87              	.LVL5:
  88 0032 FFF7FEFF 		bl	CyDelay
  89              	.LVL6:
  33:ZumoLibrary/Nunchuk.c **** }    
  90              		.loc 1 33 0
  91 0036 02B0     		add	sp, sp, #8
  92              		.cfi_def_cfa_offset 8
  93              		@ sp needed
  94 0038 10BD     		pop	{r4, pc}
  95              		.cfi_endproc
  96              	.LFE64:
  97              		.size	nunchuk_init, .-nunchuk_init
  98 003a 00BF     		.section	.text.nunchuk_read,"ax",%progbits
  99              		.align	2
 100              		.global	nunchuk_read
 101              		.thumb
 102              		.thumb_func
 103              		.type	nunchuk_read, %function
 104              	nunchuk_read:
 105              	.LFB65:
  34:ZumoLibrary/Nunchuk.c **** 
  35:ZumoLibrary/Nunchuk.c **** 
  36:ZumoLibrary/Nunchuk.c **** /**
  37:ZumoLibrary/Nunchuk.c **** * @brief    Reading Nunchuk value
  38:ZumoLibrary/Nunchuk.c **** * @details  Reading nunchuk value and getting joystick and accelerometer values
  39:ZumoLibrary/Nunchuk.c **** */
  40:ZumoLibrary/Nunchuk.c **** void nunchuk_read()
  41:ZumoLibrary/Nunchuk.c **** {
 106              		.loc 1 41 0
 107              		.cfi_startproc
 108              		@ args = 0, pretend = 0, frame = 8
 109              		@ frame_needed = 0, uses_anonymous_args = 0
 110 0000 30B5     		push	{r4, r5, lr}
 111              		.cfi_def_cfa_offset 12
 112              		.cfi_offset 4, -12
 113              		.cfi_offset 5, -8
 114              		.cfi_offset 14, -4
 115 0002 83B0     		sub	sp, sp, #12
 116              		.cfi_def_cfa_offset 24
  42:ZumoLibrary/Nunchuk.c ****     uint8_t status;
  43:ZumoLibrary/Nunchuk.c ****     uint8_t buf[6];
  44:ZumoLibrary/Nunchuk.c ****     
  45:ZumoLibrary/Nunchuk.c ****     // send conversion command
  46:ZumoLibrary/Nunchuk.c ****     buf[0] = 0x00;
 117              		.loc 1 46 0
 118 0004 0025     		movs	r5, #0
 119 0006 02AC     		add	r4, sp, #8
 120 0008 04F8085D 		strb	r5, [r4, #-8]!
  47:ZumoLibrary/Nunchuk.c ****     I2C_MasterClearStatus();
 121              		.loc 1 47 0
 122 000c FFF7FEFF 		bl	I2C_MasterClearStatus
 123              	.LVL7:
  48:ZumoLibrary/Nunchuk.c ****     status = I2C_MasterWriteBuf(0x52, buf, 1, I2C_MODE_COMPLETE_XFER);
ARM GAS  C:\Users\NHANPH~1\AppData\Local\Temp\cc87YJJB.s 			page 4


 124              		.loc 1 48 0
 125 0010 5220     		movs	r0, #82
 126 0012 2146     		mov	r1, r4
 127 0014 0122     		movs	r2, #1
 128 0016 2B46     		mov	r3, r5
 129 0018 FFF7FEFF 		bl	I2C_MasterWriteBuf
 130              	.LVL8:
 131              	.L7:
  49:ZumoLibrary/Nunchuk.c ****     while(((status = I2C_MasterStatus()) & I2C_MSTAT_WR_CMPLT) == 0);
 132              		.loc 1 49 0 discriminator 1
 133 001c FFF7FEFF 		bl	I2C_MasterStatus
 134              	.LVL9:
 135 0020 10F0020F 		tst	r0, #2
 136 0024 FAD0     		beq	.L7
  50:ZumoLibrary/Nunchuk.c ****     
  51:ZumoLibrary/Nunchuk.c ****     // wait for conversion to complete
  52:ZumoLibrary/Nunchuk.c ****     CyDelay(50); // todo: check if shorter wait would work
 137              		.loc 1 52 0
 138 0026 3220     		movs	r0, #50
 139              	.LVL10:
 140 0028 FFF7FEFF 		bl	CyDelay
 141              	.LVL11:
  53:ZumoLibrary/Nunchuk.c ****    
  54:ZumoLibrary/Nunchuk.c ****     // read values
  55:ZumoLibrary/Nunchuk.c ****     I2C_MasterClearStatus();
 142              		.loc 1 55 0
 143 002c FFF7FEFF 		bl	I2C_MasterClearStatus
 144              	.LVL12:
  56:ZumoLibrary/Nunchuk.c ****     status = I2C_MasterReadBuf(0x52, buf, 6, I2C_MODE_COMPLETE_XFER);
 145              		.loc 1 56 0
 146 0030 5220     		movs	r0, #82
 147 0032 6946     		mov	r1, sp
 148 0034 0622     		movs	r2, #6
 149 0036 0023     		movs	r3, #0
 150 0038 FFF7FEFF 		bl	I2C_MasterReadBuf
 151              	.LVL13:
 152              	.L8:
  57:ZumoLibrary/Nunchuk.c ****     while(((status = I2C_MasterStatus()) & I2C_MSTAT_RD_CMPLT) == 0);
 153              		.loc 1 57 0 discriminator 1
 154 003c FFF7FEFF 		bl	I2C_MasterStatus
 155              	.LVL14:
 156 0040 10F0010F 		tst	r0, #1
 157 0044 FAD0     		beq	.L8
 158 0046 0022     		movs	r2, #0
 159 0048 09E0     		b	.L9
 160              	.LVL15:
 161              	.L10:
  58:ZumoLibrary/Nunchuk.c ****     
  59:ZumoLibrary/Nunchuk.c ****     int i;
  60:ZumoLibrary/Nunchuk.c ****     // decrypt data
  61:ZumoLibrary/Nunchuk.c ****     for(i = 0; i < 6; i++) buf[i] = (buf[i] ^ 0x17) + 0x17;
 162              		.loc 1 61 0 discriminator 3
 163 004a 02AB     		add	r3, sp, #8
 164 004c 9918     		adds	r1, r3, r2
 165 004e 11F8083C 		ldrb	r3, [r1, #-8]	@ zero_extendqisi2
 166 0052 83F01703 		eor	r3, r3, #23
 167 0056 1733     		adds	r3, r3, #23
ARM GAS  C:\Users\NHANPH~1\AppData\Local\Temp\cc87YJJB.s 			page 5


 168 0058 01F8083C 		strb	r3, [r1, #-8]
 169 005c 0132     		adds	r2, r2, #1
 170              	.LVL16:
 171              	.L9:
 172              		.loc 1 61 0 is_stmt 0 discriminator 1
 173 005e 052A     		cmp	r2, #5
 174 0060 F3DD     		ble	.L10
  62:ZumoLibrary/Nunchuk.c ****     // accelerometer values
  63:ZumoLibrary/Nunchuk.c ****     x = (buf[2] << 2) | ((buf[5] >> 2) & 0x03);
 175              		.loc 1 63 0 is_stmt 1
 176 0062 9DF80210 		ldrb	r1, [sp, #2]	@ zero_extendqisi2
 177 0066 9DF80530 		ldrb	r3, [sp, #5]	@ zero_extendqisi2
 178 006a C3F38102 		ubfx	r2, r3, #2, #2
 179              	.LVL17:
 180 006e 42EA8101 		orr	r1, r2, r1, lsl #2
 181 0072 084A     		ldr	r2, .L12
 182 0074 1160     		str	r1, [r2]
  64:ZumoLibrary/Nunchuk.c ****     y = (buf[3] << 2) | ((buf[5] >> 4) & 0x03);
 183              		.loc 1 64 0
 184 0076 9DF80300 		ldrb	r0, [sp, #3]	@ zero_extendqisi2
 185              	.LVL18:
 186 007a C3F30111 		ubfx	r1, r3, #4, #2
 187 007e 41EA8001 		orr	r1, r1, r0, lsl #2
 188 0082 5160     		str	r1, [r2, #4]
  65:ZumoLibrary/Nunchuk.c ****     z = (buf[4] << 2) | ((buf[5] >> 6) & 0x03);
 189              		.loc 1 65 0
 190 0084 9DF80410 		ldrb	r1, [sp, #4]	@ zero_extendqisi2
 191 0088 9B09     		lsrs	r3, r3, #6
 192 008a 43EA8103 		orr	r3, r3, r1, lsl #2
 193 008e 9360     		str	r3, [r2, #8]
  66:ZumoLibrary/Nunchuk.c ****     
  67:ZumoLibrary/Nunchuk.c ****     //If you want to print out the value  
  68:ZumoLibrary/Nunchuk.c ****     //printf("%3d %3d, %d, %d, %4d %4d %4d\r\n", buf[0], buf[1], (buf[5] >> 1) & 1, buf[5] & 1, x, 
  69:ZumoLibrary/Nunchuk.c **** } ...
 194              		.loc 1 69 0
 195 0090 03B0     		add	sp, sp, #12
 196              		.cfi_def_cfa_offset 12
 197              		@ sp needed
 198 0092 30BD     		pop	{r4, r5, pc}
 199              	.L13:
 200              		.align	2
 201              	.L12:
 202 0094 00000000 		.word	.LANCHOR0
 203              		.cfi_endproc
 204              	.LFE65:
 205              		.size	nunchuk_read, .-nunchuk_read
 206              		.bss
 207              		.align	2
 208              		.set	.LANCHOR0,. + 0
 209              		.type	x, %object
 210              		.size	x, 4
 211              	x:
 212 0000 00000000 		.space	4
 213              		.type	y, %object
 214              		.size	y, 4
 215              	y:
 216 0004 00000000 		.space	4
ARM GAS  C:\Users\NHANPH~1\AppData\Local\Temp\cc87YJJB.s 			page 6


 217              		.type	z, %object
 218              		.size	z, 4
 219              	z:
 220 0008 00000000 		.space	4
 221              		.text
 222              	.Letext0:
 223              		.file 2 "c:\\program files (x86)\\cypress\\psoc creator\\4.0\\psoc creator\\import\\gnu\\arm\\4.9.
 224              		.file 3 "c:\\program files (x86)\\cypress\\psoc creator\\4.0\\psoc creator\\import\\gnu\\arm\\4.9.
 225              		.file 4 "Generated_Source\\PSoC5/cytypes.h"
 226              		.file 5 "Generated_Source\\PSoC5/I2C.h"
 227              		.file 6 "Generated_Source\\PSoC5/CyLib.h"
 228              		.file 7 "Generated_Source\\PSoC5/core_cm3.h"