ARM GAS  C:\Users\NHANPH~1\AppData\Local\Temp\cck2yOPT.s 			page 1


   1              		.syntax unified
   2              		.cpu cortex-m3
   3              		.fpu softvfp
   4              		.eabi_attribute 20, 1
   5              		.eabi_attribute 21, 1
   6              		.eabi_attribute 23, 3
   7              		.eabi_attribute 24, 1
   8              		.eabi_attribute 25, 1
   9              		.eabi_attribute 26, 1
  10              		.eabi_attribute 30, 1
  11              		.eabi_attribute 34, 1
  12              		.eabi_attribute 18, 4
  13              		.thumb
  14              		.file	"Pathfinding.c"
  15              		.text
  16              	.Ltext0:
  17              		.cfi_sections	.debug_frame
  18              		.section	.text.MyTurn,"ax",%progbits
  19              		.align	2
  20              		.global	MyTurn
  21              		.thumb
  22              		.thumb_func
  23              		.type	MyTurn, %function
  24              	MyTurn:
  25              	.LFB63:
  26              		.file 1 "Pathfinding.c"
   1:Pathfinding.c **** /* ========================================
   2:Pathfinding.c ****  *
   3:Pathfinding.c ****  * Copyright YOUR COMPANY, THE YEAR
   4:Pathfinding.c ****  * All Rights Reserved
   5:Pathfinding.c ****  * UNPUBLISHED, LICENSED SOFTWARE.
   6:Pathfinding.c ****  *
   7:Pathfinding.c ****  * CONFIDENTIAL AND PROPRIETARY INFORMATION
   8:Pathfinding.c ****  * WHICH IS THE PROPERTY OF your company.
   9:Pathfinding.c ****  *
  10:Pathfinding.c ****  * ========================================
  11:Pathfinding.c **** */
  12:Pathfinding.c **** 
  13:Pathfinding.c **** /* [] END OF FILE */
  14:Pathfinding.c **** #include "Reflectance.h"
  15:Pathfinding.c **** #include <project.h>
  16:Pathfinding.c **** #include <stdio.h>
  17:Pathfinding.c **** #include "Motor.h"
  18:Pathfinding.c **** #include "Pathfinding.h"
  19:Pathfinding.c **** #include "Playsound.h"
  20:Pathfinding.c **** 
  21:Pathfinding.c **** #define MOTOR_SPEED 255
  22:Pathfinding.c **** #define MOTOR_SL_SPEED 140 // depend on battery
  23:Pathfinding.c **** #define SENSOR_TH 10000
  24:Pathfinding.c **** #define TURN_LEFT 0
  25:Pathfinding.c **** #define TURN_RIGHT 1
  26:Pathfinding.c **** #define TURN_SHARP_LEFT 2
  27:Pathfinding.c **** #define TURN_SHARP_RIGHT 3
  28:Pathfinding.c **** 
  29:Pathfinding.c **** /**
  30:Pathfinding.c **** *   Method for easier recognize the turning of the robot
  31:Pathfinding.c **** *   if it a SHARP turn, then the other wheel speed is 0
ARM GAS  C:\Users\NHANPH~1\AppData\Local\Temp\cck2yOPT.s 			page 2


  32:Pathfinding.c **** *   if it a normal turn, then the other wheel speed is at SL_SPEED
  33:Pathfinding.c **** * 
  34:Pathfinding.c **** */
  35:Pathfinding.c **** void MyTurn(uint8 direction) {
  27              		.loc 1 35 0
  28              		.cfi_startproc
  29              		@ args = 0, pretend = 0, frame = 0
  30              		@ frame_needed = 0, uses_anonymous_args = 0
  31              	.LVL0:
  32 0000 00B5     		push	{lr}
  33              		.cfi_def_cfa_offset 4
  34              		.cfi_offset 14, -4
  35 0002 83B0     		sub	sp, sp, #12
  36              		.cfi_def_cfa_offset 16
  36:Pathfinding.c ****     if (direction == TURN_RIGHT) {        
  37              		.loc 1 36 0
  38 0004 0128     		cmp	r0, #1
  39 0006 07D1     		bne	.L2
  37:Pathfinding.c ****         motor_turn_adv(MOTOR_SPEED, 0, MOTOR_SL_SPEED, 0, 0);
  40              		.loc 1 37 0
  41 0008 0023     		movs	r3, #0
  42 000a 0093     		str	r3, [sp]
  43 000c FF20     		movs	r0, #255
  44              	.LVL1:
  45 000e 1946     		mov	r1, r3
  46 0010 8C22     		movs	r2, #140
  47 0012 FFF7FEFF 		bl	motor_turn_adv
  48              	.LVL2:
  49 0016 1BE0     		b	.L1
  50              	.LVL3:
  51              	.L2:
  38:Pathfinding.c ****         
  39:Pathfinding.c ****     } else if (direction == TURN_LEFT) {
  52              		.loc 1 39 0
  53 0018 38B9     		cbnz	r0, .L4
  40:Pathfinding.c ****         motor_turn_adv(MOTOR_SL_SPEED, 0, MOTOR_SPEED, 0, 0);  
  54              		.loc 1 40 0
  55 001a 0023     		movs	r3, #0
  56 001c 0093     		str	r3, [sp]
  57 001e 8C20     		movs	r0, #140
  58              	.LVL4:
  59 0020 1946     		mov	r1, r3
  60 0022 FF22     		movs	r2, #255
  61 0024 FFF7FEFF 		bl	motor_turn_adv
  62              	.LVL5:
  63 0028 12E0     		b	.L1
  64              	.LVL6:
  65              	.L4:
  41:Pathfinding.c ****         
  42:Pathfinding.c ****     } else if (direction == TURN_SHARP_RIGHT) {
  66              		.loc 1 42 0
  67 002a 0328     		cmp	r0, #3
  68 002c 07D1     		bne	.L5
  43:Pathfinding.c ****         motor_turn_adv(MOTOR_SPEED, 0, 0, 0, 0); 
  69              		.loc 1 43 0
  70 002e 0023     		movs	r3, #0
  71 0030 0093     		str	r3, [sp]
ARM GAS  C:\Users\NHANPH~1\AppData\Local\Temp\cck2yOPT.s 			page 3


  72 0032 FF20     		movs	r0, #255
  73              	.LVL7:
  74 0034 1946     		mov	r1, r3
  75 0036 1A46     		mov	r2, r3
  76 0038 FFF7FEFF 		bl	motor_turn_adv
  77              	.LVL8:
  78 003c 08E0     		b	.L1
  79              	.LVL9:
  80              	.L5:
  44:Pathfinding.c ****         
  45:Pathfinding.c ****     } else if (direction == TURN_SHARP_LEFT) {
  81              		.loc 1 45 0
  82 003e 0228     		cmp	r0, #2
  83 0040 06D1     		bne	.L1
  46:Pathfinding.c ****         motor_turn_adv(0, 0, MOTOR_SPEED, 0, 0);   
  84              		.loc 1 46 0
  85 0042 0023     		movs	r3, #0
  86 0044 0093     		str	r3, [sp]
  87 0046 1846     		mov	r0, r3
  88              	.LVL10:
  89 0048 1946     		mov	r1, r3
  90 004a FF22     		movs	r2, #255
  91 004c FFF7FEFF 		bl	motor_turn_adv
  92              	.LVL11:
  93              	.L1:
  47:Pathfinding.c ****     }
  48:Pathfinding.c **** }
  94              		.loc 1 48 0
  95 0050 03B0     		add	sp, sp, #12
  96              		.cfi_def_cfa_offset 4
  97              		@ sp needed
  98 0052 5DF804FB 		ldr	pc, [sp], #4
  99              		.cfi_endproc
 100              	.LFE63:
 101              		.size	MyTurn, .-MyTurn
 102              		.global	__aeabi_i2f
 103              		.global	__aeabi_fcmple
 104              		.global	__aeabi_fcmpge
 105              		.global	__aeabi_f2d
 106              		.global	__aeabi_dcmplt
 107 0056 00BF     		.section	.text.PathfindingAdvP,"ax",%progbits
 108              		.align	2
 109              		.global	PathfindingAdvP
 110              		.thumb
 111              		.thumb_func
 112              		.type	PathfindingAdvP, %function
 113              	PathfindingAdvP:
 114              	.LFB64:
  49:Pathfinding.c **** 
  50:Pathfinding.c ****     // For PD, but will not useed in basic & advance
  51:Pathfinding.c ****     int r3W = 6200;
  52:Pathfinding.c ****     int r1W = 4300;
  53:Pathfinding.c ****     int l1W = 3700;
  54:Pathfinding.c ****     int l3W = 5000;
  55:Pathfinding.c ****     
  56:Pathfinding.c ****     int r3B = 23900;
  57:Pathfinding.c ****     int r1B = 23900;
ARM GAS  C:\Users\NHANPH~1\AppData\Local\Temp\cck2yOPT.s 			page 4


  58:Pathfinding.c ****     int l1B = 23900;
  59:Pathfinding.c ****     int l3B = 23900;
  60:Pathfinding.c **** 
  61:Pathfinding.c **** 
  62:Pathfinding.c **** //Using advance logic pathfinding
  63:Pathfinding.c **** void PathfindingAdvP(uint16_t r1, uint16_t r3, uint16_t l1, uint16_t l3, uint8_t *checkStop, uint8_
  64:Pathfinding.c **** {        
 115              		.loc 1 64 0
 116              		.cfi_startproc
 117              		@ args = 8, pretend = 0, frame = 0
 118              		@ frame_needed = 0, uses_anonymous_args = 0
 119              	.LVL12:
 120 0000 2DE9F84F 		push	{r3, r4, r5, r6, r7, r8, r9, r10, fp, lr}
 121              		.cfi_def_cfa_offset 40
 122              		.cfi_offset 3, -40
 123              		.cfi_offset 4, -36
 124              		.cfi_offset 5, -32
 125              		.cfi_offset 6, -28
 126              		.cfi_offset 7, -24
 127              		.cfi_offset 8, -20
 128              		.cfi_offset 9, -16
 129              		.cfi_offset 10, -12
 130              		.cfi_offset 11, -8
 131              		.cfi_offset 14, -4
 132 0004 8246     		mov	r10, r0
 133 0006 8B46     		mov	fp, r1
 134 0008 9046     		mov	r8, r2
 135 000a 1C46     		mov	r4, r3
 136 000c 0A9E     		ldr	r6, [sp, #40]
 137 000e DDF82C90 		ldr	r9, [sp, #44]
 138              	.LVL13:
  65:Pathfinding.c ****     //Normalized data
  66:Pathfinding.c ****     //Start normalized all measured data to [0;1]
  67:Pathfinding.c ****     float Pl3 = (l3 - l3W)/(l3B - l3W);
  68:Pathfinding.c ****     float Pl1 = (l1 - l1W)/(l1B - l1W);
 139              		.loc 1 68 0
 140 0012 BD4D     		ldr	r5, .L59+32
 141 0014 2A68     		ldr	r2, [r5]
 142              	.LVL14:
 143 0016 C2EB0800 		rsb	r0, r2, r8
 144              	.LVL15:
 145 001a 6B68     		ldr	r3, [r5, #4]
 146              	.LVL16:
 147 001c 9B1A     		subs	r3, r3, r2
 148 001e 90FBF3F0 		sdiv	r0, r0, r3
 149 0022 FFF7FEFF 		bl	__aeabi_i2f
 150              	.LVL17:
 151 0026 0746     		mov	r7, r0
 152              	.LVL18:
  69:Pathfinding.c ****     float Pr3 = (r3 - r3W)/(r3B - r3W);
  70:Pathfinding.c ****     float Pr1 = (r1 - r1W)/(r1B - r1W);
 153              		.loc 1 70 0
 154 0028 AA68     		ldr	r2, [r5, #8]
 155 002a C2EB0A00 		rsb	r0, r2, r10
 156              	.LVL19:
 157 002e EB68     		ldr	r3, [r5, #12]
 158 0030 9B1A     		subs	r3, r3, r2
ARM GAS  C:\Users\NHANPH~1\AppData\Local\Temp\cck2yOPT.s 			page 5


 159 0032 90FBF3F0 		sdiv	r0, r0, r3
 160 0036 FFF7FEFF 		bl	__aeabi_i2f
 161              	.LVL20:
 162 003a 0546     		mov	r5, r0
 163              	.LVL21:
  71:Pathfinding.c ****     
  72:Pathfinding.c ****     
  73:Pathfinding.c ****     // 1 is black
  74:Pathfinding.c ****     if(Pr1<=0.5 || Pl1<=0.5){
 164              		.loc 1 74 0
 165 003c 4FF07C51 		mov	r1, #1056964608
 166 0040 FFF7FEFF 		bl	__aeabi_fcmple
 167              	.LVL22:
 168 0044 38B9     		cbnz	r0, .L8
 169              		.loc 1 74 0 is_stmt 0 discriminator 1
 170 0046 3846     		mov	r0, r7
 171 0048 4FF07C51 		mov	r1, #1056964608
 172 004c FFF7FEFF 		bl	__aeabi_fcmple
 173              	.LVL23:
 174 0050 0028     		cmp	r0, #0
 175 0052 00F01681 		beq	.L57
 176              	.L8:
  75:Pathfinding.c ****        
  76:Pathfinding.c ****         if(l3>=SENSOR_TH){
 177              		.loc 1 76 0 is_stmt 1
 178 0056 42F20F73 		movw	r3, #9999
 179 005a 9C42     		cmp	r4, r3
 180 005c 06D9     		bls	.L11
  77:Pathfinding.c ****             MyTurn(TURN_SHARP_LEFT);
 181              		.loc 1 77 0
 182 005e 0220     		movs	r0, #2
 183 0060 FFF7FEFF 		bl	MyTurn
 184              	.LVL24:
  78:Pathfinding.c ****             BatteryLed_Write(0);
 185              		.loc 1 78 0
 186 0064 0020     		movs	r0, #0
 187 0066 FFF7FEFF 		bl	BatteryLed_Write
 188              	.LVL25:
 189 006a 11E1     		b	.L12
 190              	.L11:
  79:Pathfinding.c ****             
  80:Pathfinding.c ****         }
  81:Pathfinding.c ****         else if(r3>=SENSOR_TH ){
 191              		.loc 1 81 0
 192 006c 42F20F73 		movw	r3, #9999
 193 0070 9B45     		cmp	fp, r3
 194 0072 06D9     		bls	.L13
  82:Pathfinding.c ****             MyTurn(TURN_SHARP_RIGHT);
 195              		.loc 1 82 0
 196 0074 0320     		movs	r0, #3
 197 0076 FFF7FEFF 		bl	MyTurn
 198              	.LVL26:
  83:Pathfinding.c ****             BatteryLed_Write(0);
 199              		.loc 1 83 0
 200 007a 0020     		movs	r0, #0
 201 007c FFF7FEFF 		bl	BatteryLed_Write
 202              	.LVL27:
ARM GAS  C:\Users\NHANPH~1\AppData\Local\Temp\cck2yOPT.s 			page 6


 203 0080 06E1     		b	.L12
 204              	.L13:
  84:Pathfinding.c ****         }
  85:Pathfinding.c ****         
  86:Pathfinding.c ****         // 0100
  87:Pathfinding.c ****         else if (l3 < SENSOR_TH && Pl1 >= 0.5 && Pr1 < 0.1 && r3 < SENSOR_TH){
 205              		.loc 1 87 0
 206 0082 42F20F73 		movw	r3, #9999
 207 0086 9C42     		cmp	r4, r3
 208 0088 1BD8     		bhi	.L14
 209              		.loc 1 87 0 is_stmt 0 discriminator 1
 210 008a 3846     		mov	r0, r7
 211 008c 4FF07C51 		mov	r1, #1056964608
 212 0090 FFF7FEFF 		bl	__aeabi_fcmpge
 213              	.LVL28:
 214 0094 A8B1     		cbz	r0, .L14
 215              		.loc 1 87 0 discriminator 2
 216 0096 2846     		mov	r0, r5
 217 0098 FFF7FEFF 		bl	__aeabi_f2d
 218              	.LVL29:
 219 009c 92A3     		adr	r3, .L59
 220 009e D3E90023 		ldrd	r2, [r3]
 221 00a2 FFF7FEFF 		bl	__aeabi_dcmplt
 222              	.LVL30:
 223 00a6 60B1     		cbz	r0, .L14
 224              		.loc 1 87 0 discriminator 3
 225 00a8 42F20F73 		movw	r3, #9999
 226 00ac 9B45     		cmp	fp, r3
 227 00ae 08D8     		bhi	.L14
  88:Pathfinding.c ****             motor_turn(110,255,0);
 228              		.loc 1 88 0 is_stmt 1
 229 00b0 6E20     		movs	r0, #110
 230 00b2 FF21     		movs	r1, #255
 231 00b4 0022     		movs	r2, #0
 232 00b6 FFF7FEFF 		bl	motor_turn
 233              	.LVL31:
  89:Pathfinding.c ****             BatteryLed_Write(0);
 234              		.loc 1 89 0
 235 00ba 0020     		movs	r0, #0
 236 00bc FFF7FEFF 		bl	BatteryLed_Write
 237              	.LVL32:
 238 00c0 E6E0     		b	.L12
 239              	.L14:
  90:Pathfinding.c ****         }
  91:Pathfinding.c ****         
  92:Pathfinding.c ****         else if (l3 < SENSOR_TH && Pl1 >= 0.5 && Pr1 < 0.15 && r3 < SENSOR_TH){
 240              		.loc 1 92 0
 241 00c2 42F20F73 		movw	r3, #9999
 242 00c6 9C42     		cmp	r4, r3
 243 00c8 1BD8     		bhi	.L17
 244              		.loc 1 92 0 is_stmt 0 discriminator 1
 245 00ca 3846     		mov	r0, r7
 246 00cc 4FF07C51 		mov	r1, #1056964608
 247 00d0 FFF7FEFF 		bl	__aeabi_fcmpge
 248              	.LVL33:
 249 00d4 A8B1     		cbz	r0, .L17
 250              		.loc 1 92 0 discriminator 2
ARM GAS  C:\Users\NHANPH~1\AppData\Local\Temp\cck2yOPT.s 			page 7


 251 00d6 2846     		mov	r0, r5
 252 00d8 FFF7FEFF 		bl	__aeabi_f2d
 253              	.LVL34:
 254 00dc 84A3     		adr	r3, .L59+8
 255 00de D3E90023 		ldrd	r2, [r3]
 256 00e2 FFF7FEFF 		bl	__aeabi_dcmplt
 257              	.LVL35:
 258 00e6 60B1     		cbz	r0, .L17
 259              		.loc 1 92 0 discriminator 3
 260 00e8 42F20F73 		movw	r3, #9999
 261 00ec 9B45     		cmp	fp, r3
 262 00ee 08D8     		bhi	.L17
  93:Pathfinding.c ****             motor_turn(140,255,0);
 263              		.loc 1 93 0 is_stmt 1
 264 00f0 8C20     		movs	r0, #140
 265 00f2 FF21     		movs	r1, #255
 266 00f4 0022     		movs	r2, #0
 267 00f6 FFF7FEFF 		bl	motor_turn
 268              	.LVL36:
  94:Pathfinding.c ****             BatteryLed_Write(0);
 269              		.loc 1 94 0
 270 00fa 0020     		movs	r0, #0
 271 00fc FFF7FEFF 		bl	BatteryLed_Write
 272              	.LVL37:
 273 0100 C6E0     		b	.L12
 274              	.L17:
  95:Pathfinding.c ****         }
  96:Pathfinding.c ****         
  97:Pathfinding.c ****         else if (l3 < SENSOR_TH && Pl1 >= 0.5 && Pr1 < 0.2 && r3 < SENSOR_TH){
 275              		.loc 1 97 0
 276 0102 42F20F73 		movw	r3, #9999
 277 0106 9C42     		cmp	r4, r3
 278 0108 1BD8     		bhi	.L20
 279              		.loc 1 97 0 is_stmt 0 discriminator 1
 280 010a 3846     		mov	r0, r7
 281 010c 4FF07C51 		mov	r1, #1056964608
 282 0110 FFF7FEFF 		bl	__aeabi_fcmpge
 283              	.LVL38:
 284 0114 A8B1     		cbz	r0, .L20
 285              		.loc 1 97 0 discriminator 2
 286 0116 2846     		mov	r0, r5
 287 0118 FFF7FEFF 		bl	__aeabi_f2d
 288              	.LVL39:
 289 011c 76A3     		adr	r3, .L59+16
 290 011e D3E90023 		ldrd	r2, [r3]
 291 0122 FFF7FEFF 		bl	__aeabi_dcmplt
 292              	.LVL40:
 293 0126 60B1     		cbz	r0, .L20
 294              		.loc 1 97 0 discriminator 3
 295 0128 42F20F73 		movw	r3, #9999
 296 012c 9B45     		cmp	fp, r3
 297 012e 08D8     		bhi	.L20
  98:Pathfinding.c ****             motor_turn(180,255,0);
 298              		.loc 1 98 0 is_stmt 1
 299 0130 B420     		movs	r0, #180
 300 0132 FF21     		movs	r1, #255
 301 0134 0022     		movs	r2, #0
ARM GAS  C:\Users\NHANPH~1\AppData\Local\Temp\cck2yOPT.s 			page 8


 302 0136 FFF7FEFF 		bl	motor_turn
 303              	.LVL41:
  99:Pathfinding.c ****             BatteryLed_Write(1);
 304              		.loc 1 99 0
 305 013a 0120     		movs	r0, #1
 306 013c FFF7FEFF 		bl	BatteryLed_Write
 307              	.LVL42:
 308 0140 A6E0     		b	.L12
 309              	.L20:
 100:Pathfinding.c ****         }
 101:Pathfinding.c ****         
 102:Pathfinding.c ****         else if (l3 < SENSOR_TH && Pl1 >= 0.5 && Pr1 < 0.3 && r3 < SENSOR_TH){
 310              		.loc 1 102 0
 311 0142 42F20F73 		movw	r3, #9999
 312 0146 9C42     		cmp	r4, r3
 313 0148 1BD8     		bhi	.L23
 314              		.loc 1 102 0 is_stmt 0 discriminator 1
 315 014a 3846     		mov	r0, r7
 316 014c 4FF07C51 		mov	r1, #1056964608
 317 0150 FFF7FEFF 		bl	__aeabi_fcmpge
 318              	.LVL43:
 319 0154 A8B1     		cbz	r0, .L23
 320              		.loc 1 102 0 discriminator 2
 321 0156 2846     		mov	r0, r5
 322 0158 FFF7FEFF 		bl	__aeabi_f2d
 323              	.LVL44:
 324 015c 68A3     		adr	r3, .L59+24
 325 015e D3E90023 		ldrd	r2, [r3]
 326 0162 FFF7FEFF 		bl	__aeabi_dcmplt
 327              	.LVL45:
 328 0166 60B1     		cbz	r0, .L23
 329              		.loc 1 102 0 discriminator 3
 330 0168 42F20F73 		movw	r3, #9999
 331 016c 9B45     		cmp	fp, r3
 332 016e 08D8     		bhi	.L23
 103:Pathfinding.c ****             motor_turn(255,255,0);
 333              		.loc 1 103 0 is_stmt 1
 334 0170 FF20     		movs	r0, #255
 335 0172 0146     		mov	r1, r0
 336 0174 0022     		movs	r2, #0
 337 0176 FFF7FEFF 		bl	motor_turn
 338              	.LVL46:
 104:Pathfinding.c ****             BatteryLed_Write(0);
 339              		.loc 1 104 0
 340 017a 0020     		movs	r0, #0
 341 017c FFF7FEFF 		bl	BatteryLed_Write
 342              	.LVL47:
 343 0180 86E0     		b	.L12
 344              	.L23:
 105:Pathfinding.c ****         }
 106:Pathfinding.c ****         
 107:Pathfinding.c ****         //0010
 108:Pathfinding.c ****         else if (l3 < SENSOR_TH && Pl1 < 0.1 && Pr1 >= 0.5 && r3 < SENSOR_TH){
 345              		.loc 1 108 0
 346 0182 42F20F73 		movw	r3, #9999
 347 0186 9C42     		cmp	r4, r3
 348 0188 1BD8     		bhi	.L26
ARM GAS  C:\Users\NHANPH~1\AppData\Local\Temp\cck2yOPT.s 			page 9


 349              		.loc 1 108 0 is_stmt 0 discriminator 1
 350 018a 3846     		mov	r0, r7
 351 018c FFF7FEFF 		bl	__aeabi_f2d
 352              	.LVL48:
 353 0190 55A3     		adr	r3, .L59
 354 0192 D3E90023 		ldrd	r2, [r3]
 355 0196 FFF7FEFF 		bl	__aeabi_dcmplt
 356              	.LVL49:
 357 019a 90B1     		cbz	r0, .L26
 358              		.loc 1 108 0 discriminator 2
 359 019c 2846     		mov	r0, r5
 360 019e 4FF07C51 		mov	r1, #1056964608
 361 01a2 FFF7FEFF 		bl	__aeabi_fcmpge
 362              	.LVL50:
 363 01a6 60B1     		cbz	r0, .L26
 364              		.loc 1 108 0 discriminator 3
 365 01a8 42F20F73 		movw	r3, #9999
 366 01ac 9B45     		cmp	fp, r3
 367 01ae 08D8     		bhi	.L26
 109:Pathfinding.c ****             motor_turn(255, 110,0);
 368              		.loc 1 109 0 is_stmt 1
 369 01b0 FF20     		movs	r0, #255
 370 01b2 6E21     		movs	r1, #110
 371 01b4 0022     		movs	r2, #0
 372 01b6 FFF7FEFF 		bl	motor_turn
 373              	.LVL51:
 110:Pathfinding.c ****             BatteryLed_Write(0);
 374              		.loc 1 110 0
 375 01ba 0020     		movs	r0, #0
 376 01bc FFF7FEFF 		bl	BatteryLed_Write
 377              	.LVL52:
 378 01c0 66E0     		b	.L12
 379              	.L26:
 111:Pathfinding.c ****         }
 112:Pathfinding.c ****         else if (l3 < SENSOR_TH && Pl1 < 0.15 && Pr1 >= 0.5 && r3 < SENSOR_TH){
 380              		.loc 1 112 0
 381 01c2 42F20F73 		movw	r3, #9999
 382 01c6 9C42     		cmp	r4, r3
 383 01c8 1BD8     		bhi	.L29
 384              		.loc 1 112 0 is_stmt 0 discriminator 1
 385 01ca 3846     		mov	r0, r7
 386 01cc FFF7FEFF 		bl	__aeabi_f2d
 387              	.LVL53:
 388 01d0 47A3     		adr	r3, .L59+8
 389 01d2 D3E90023 		ldrd	r2, [r3]
 390 01d6 FFF7FEFF 		bl	__aeabi_dcmplt
 391              	.LVL54:
 392 01da 90B1     		cbz	r0, .L29
 393              		.loc 1 112 0 discriminator 2
 394 01dc 2846     		mov	r0, r5
 395 01de 4FF07C51 		mov	r1, #1056964608
 396 01e2 FFF7FEFF 		bl	__aeabi_fcmpge
 397              	.LVL55:
 398 01e6 60B1     		cbz	r0, .L29
 399              		.loc 1 112 0 discriminator 3
 400 01e8 42F20F73 		movw	r3, #9999
 401 01ec 9B45     		cmp	fp, r3
ARM GAS  C:\Users\NHANPH~1\AppData\Local\Temp\cck2yOPT.s 			page 10


 402 01ee 08D8     		bhi	.L29
 113:Pathfinding.c ****             motor_turn(255, 140,0);
 403              		.loc 1 113 0 is_stmt 1
 404 01f0 FF20     		movs	r0, #255
 405 01f2 8C21     		movs	r1, #140
 406 01f4 0022     		movs	r2, #0
 407 01f6 FFF7FEFF 		bl	motor_turn
 408              	.LVL56:
 114:Pathfinding.c ****             BatteryLed_Write(0);
 409              		.loc 1 114 0
 410 01fa 0020     		movs	r0, #0
 411 01fc FFF7FEFF 		bl	BatteryLed_Write
 412              	.LVL57:
 413 0200 46E0     		b	.L12
 414              	.L29:
 115:Pathfinding.c ****         }
 116:Pathfinding.c ****         else if (l3 < SENSOR_TH && Pl1 < 0.2 && Pr1 >= 0.5 && r3 < SENSOR_TH){
 415              		.loc 1 116 0
 416 0202 42F20F73 		movw	r3, #9999
 417 0206 9C42     		cmp	r4, r3
 418 0208 1BD8     		bhi	.L32
 419              		.loc 1 116 0 is_stmt 0 discriminator 1
 420 020a 3846     		mov	r0, r7
 421 020c FFF7FEFF 		bl	__aeabi_f2d
 422              	.LVL58:
 423 0210 39A3     		adr	r3, .L59+16
 424 0212 D3E90023 		ldrd	r2, [r3]
 425 0216 FFF7FEFF 		bl	__aeabi_dcmplt
 426              	.LVL59:
 427 021a 90B1     		cbz	r0, .L32
 428              		.loc 1 116 0 discriminator 2
 429 021c 2846     		mov	r0, r5
 430 021e 4FF07C51 		mov	r1, #1056964608
 431 0222 FFF7FEFF 		bl	__aeabi_fcmpge
 432              	.LVL60:
 433 0226 60B1     		cbz	r0, .L32
 434              		.loc 1 116 0 discriminator 3
 435 0228 42F20F73 		movw	r3, #9999
 436 022c 9B45     		cmp	fp, r3
 437 022e 08D8     		bhi	.L32
 117:Pathfinding.c ****             motor_turn(255, 180,0);
 438              		.loc 1 117 0 is_stmt 1
 439 0230 FF20     		movs	r0, #255
 440 0232 B421     		movs	r1, #180
 441 0234 0022     		movs	r2, #0
 442 0236 FFF7FEFF 		bl	motor_turn
 443              	.LVL61:
 118:Pathfinding.c ****             BatteryLed_Write(1);
 444              		.loc 1 118 0
 445 023a 0120     		movs	r0, #1
 446 023c FFF7FEFF 		bl	BatteryLed_Write
 447              	.LVL62:
 448 0240 26E0     		b	.L12
 449              	.L32:
 119:Pathfinding.c ****         }
 120:Pathfinding.c ****         else if (l3 < SENSOR_TH && Pl1 < 0.3 && Pr1 >= 0.5 && r3 < SENSOR_TH){
 450              		.loc 1 120 0
ARM GAS  C:\Users\NHANPH~1\AppData\Local\Temp\cck2yOPT.s 			page 11


 451 0242 42F20F73 		movw	r3, #9999
 452 0246 9C42     		cmp	r4, r3
 453 0248 22D8     		bhi	.L12
 454              		.loc 1 120 0 is_stmt 0 discriminator 1
 455 024a 3846     		mov	r0, r7
 456 024c FFF7FEFF 		bl	__aeabi_f2d
 457              	.LVL63:
 458 0250 2BA3     		adr	r3, .L59+24
 459 0252 D3E90023 		ldrd	r2, [r3]
 460 0256 FFF7FEFF 		bl	__aeabi_dcmplt
 461              	.LVL64:
 462 025a C8B1     		cbz	r0, .L12
 463              		.loc 1 120 0 discriminator 2
 464 025c 2846     		mov	r0, r5
 465 025e 4FF07C51 		mov	r1, #1056964608
 466 0262 FFF7FEFF 		bl	__aeabi_fcmpge
 467              	.LVL65:
 468 0266 98B1     		cbz	r0, .L12
 469              		.loc 1 120 0 discriminator 3
 470 0268 42F20F73 		movw	r3, #9999
 471 026c 9B45     		cmp	fp, r3
 472 026e 0FD8     		bhi	.L12
 121:Pathfinding.c ****             motor_turn(255, 255,0);
 473              		.loc 1 121 0 is_stmt 1
 474 0270 FF20     		movs	r0, #255
 475 0272 0146     		mov	r1, r0
 476 0274 0022     		movs	r2, #0
 477 0276 FFF7FEFF 		bl	motor_turn
 478              	.LVL66:
 122:Pathfinding.c ****             BatteryLed_Write(0);
 479              		.loc 1 122 0
 480 027a 0020     		movs	r0, #0
 481 027c FFF7FEFF 		bl	BatteryLed_Write
 482              	.LVL67:
 483 0280 06E0     		b	.L12
 484              	.L57:
 123:Pathfinding.c ****         }
 124:Pathfinding.c ****     } 
 125:Pathfinding.c ****     
 126:Pathfinding.c ****     else {
 127:Pathfinding.c ****         motor_forward(MOTOR_SPEED,0);
 485              		.loc 1 127 0
 486 0282 FF20     		movs	r0, #255
 487 0284 0021     		movs	r1, #0
 488 0286 FFF7FEFF 		bl	motor_forward
 489              	.LVL68:
 128:Pathfinding.c ****         BatteryLed_Write(0);
 490              		.loc 1 128 0
 491 028a 0020     		movs	r0, #0
 492 028c FFF7FEFF 		bl	BatteryLed_Write
 493              	.LVL69:
 494              	.L12:
 129:Pathfinding.c ****     }
 130:Pathfinding.c ****     
 131:Pathfinding.c ****     
 132:Pathfinding.c ****     if (*lastBlack == 1 && (l3 <SENSOR_TH || r3 < SENSOR_TH)) {
 495              		.loc 1 132 0
ARM GAS  C:\Users\NHANPH~1\AppData\Local\Temp\cck2yOPT.s 			page 12


 496 0290 99F80030 		ldrb	r3, [r9]	@ zero_extendqisi2
 497 0294 012B     		cmp	r3, #1
 498 0296 0BD1     		bne	.L37
 499              		.loc 1 132 0 is_stmt 0 discriminator 1
 500 0298 42F20F73 		movw	r3, #9999
 501 029c 9C42     		cmp	r4, r3
 502 029e 01D9     		bls	.L38
 503              		.loc 1 132 0 discriminator 2
 504 02a0 9B45     		cmp	fp, r3
 505 02a2 05D8     		bhi	.L37
 506              	.L38:
 133:Pathfinding.c ****         *checkStop = *checkStop + 1;        
 507              		.loc 1 133 0 is_stmt 1
 508 02a4 3378     		ldrb	r3, [r6]	@ zero_extendqisi2
 509 02a6 0133     		adds	r3, r3, #1
 510 02a8 3370     		strb	r3, [r6]
 134:Pathfinding.c ****         *lastBlack = 0;
 511              		.loc 1 134 0
 512 02aa 0023     		movs	r3, #0
 513 02ac 89F80030 		strb	r3, [r9]
 514              	.L37:
 135:Pathfinding.c ****     }
 136:Pathfinding.c ****     
 137:Pathfinding.c ****     // STOP AT FINISH LINE
 138:Pathfinding.c ****     if(l3>=SENSOR_TH && l1>=SENSOR_TH && r1>=SENSOR_TH && r3>=SENSOR_TH) {
 515              		.loc 1 138 0
 516 02b0 42F20F73 		movw	r3, #9999
 517 02b4 9C42     		cmp	r4, r3
 518 02b6 08D9     		bls	.L39
 519              		.loc 1 138 0 is_stmt 0 discriminator 1
 520 02b8 9845     		cmp	r8, r3
 521 02ba 06D9     		bls	.L39
 522              		.loc 1 138 0 discriminator 2
 523 02bc 9A45     		cmp	r10, r3
 524 02be 04D9     		bls	.L39
 525              		.loc 1 138 0 discriminator 3
 526 02c0 9B45     		cmp	fp, r3
 527 02c2 02D9     		bls	.L39
 139:Pathfinding.c ****         *lastBlack = 1;
 528              		.loc 1 139 0 is_stmt 1
 529 02c4 0123     		movs	r3, #1
 530 02c6 89F80030 		strb	r3, [r9]
 531              	.L39:
 140:Pathfinding.c ****     }    
 141:Pathfinding.c ****     
 142:Pathfinding.c ****     if (*checkStop>=2) {
 532              		.loc 1 142 0
 533 02ca 3378     		ldrb	r3, [r6]	@ zero_extendqisi2
 534 02cc 012B     		cmp	r3, #1
 535 02ce 07D9     		bls	.L7
 143:Pathfinding.c ****         *checkStop = 2;
 536              		.loc 1 143 0
 537 02d0 0223     		movs	r3, #2
 538 02d2 3370     		strb	r3, [r6]
 144:Pathfinding.c ****         motor_stop();
 539              		.loc 1 144 0
 540 02d4 FFF7FEFF 		bl	motor_stop
ARM GAS  C:\Users\NHANPH~1\AppData\Local\Temp\cck2yOPT.s 			page 13


 541              	.LVL70:
 145:Pathfinding.c ****         CyDelay(3000);
 542              		.loc 1 145 0
 543 02d8 40F6B830 		movw	r0, #3000
 544 02dc FFF7FEFF 		bl	CyDelay
 545              	.LVL71:
 546              	.L7:
 547 02e0 BDE8F88F 		pop	{r3, r4, r5, r6, r7, r8, r9, r10, fp, pc}
 548              	.LVL72:
 549              	.L60:
 550 02e4 AFF30080 		.align	3
 551              	.L59:
 552 02e8 9A999999 		.word	-1717986918
 553 02ec 9999B93F 		.word	1069128089
 554 02f0 33333333 		.word	858993459
 555 02f4 3333C33F 		.word	1069757235
 556 02f8 9A999999 		.word	-1717986918
 557 02fc 9999C93F 		.word	1070176665
 558 0300 33333333 		.word	858993459
 559 0304 3333D33F 		.word	1070805811
 560 0308 00000000 		.word	.LANCHOR0
 561              		.cfi_endproc
 562              	.LFE64:
 563              		.size	PathfindingAdvP, .-PathfindingAdvP
 564 030c AFF30080 		.section	.text.PathfindingAdv,"ax",%progbits
 565              		.align	2
 566              		.global	PathfindingAdv
 567              		.thumb
 568              		.thumb_func
 569              		.type	PathfindingAdv, %function
 570              	PathfindingAdv:
 571              	.LFB65:
 146:Pathfinding.c ****         //Playsound();
 147:Pathfinding.c ****     }             
 148:Pathfinding.c **** }
 149:Pathfinding.c **** 
 150:Pathfinding.c **** //Using advance logic pathfinding
 151:Pathfinding.c **** void PathfindingAdv(uint16_t r1, uint16_t r3, uint16_t l1, uint16_t l3, uint8_t *checkStop, uint8_t
 152:Pathfinding.c **** {        
 572              		.loc 1 152 0
 573              		.cfi_startproc
 574              		@ args = 8, pretend = 0, frame = 0
 575              		@ frame_needed = 0, uses_anonymous_args = 0
 576              	.LVL73:
 577 0000 2DE9F843 		push	{r3, r4, r5, r6, r7, r8, r9, lr}
 578              		.cfi_def_cfa_offset 32
 579              		.cfi_offset 3, -32
 580              		.cfi_offset 4, -28
 581              		.cfi_offset 5, -24
 582              		.cfi_offset 6, -20
 583              		.cfi_offset 7, -16
 584              		.cfi_offset 8, -12
 585              		.cfi_offset 9, -8
 586              		.cfi_offset 14, -4
 587 0004 0646     		mov	r6, r0
 588 0006 8946     		mov	r9, r1
 589 0008 1746     		mov	r7, r2
ARM GAS  C:\Users\NHANPH~1\AppData\Local\Temp\cck2yOPT.s 			page 14


 590 000a 1C46     		mov	r4, r3
 591 000c 089D     		ldr	r5, [sp, #32]
 592 000e DDF82480 		ldr	r8, [sp, #36]
 153:Pathfinding.c ****     // 1 is black
 154:Pathfinding.c ****     if(r1<=SENSOR_TH || l1<=SENSOR_TH){
 593              		.loc 1 154 0
 594 0012 42F21073 		movw	r3, #10000
 595              	.LVL74:
 596 0016 9842     		cmp	r0, r3
 597 0018 01D9     		bls	.L62
 598              		.loc 1 154 0 is_stmt 0 discriminator 1
 599 001a 9A42     		cmp	r2, r3
 600 001c 2BD8     		bhi	.L63
 601              	.L62:
 155:Pathfinding.c ****        
 156:Pathfinding.c ****         if(l3>=SENSOR_TH){ MyTurn(TURN_SHARP_LEFT);
 602              		.loc 1 156 0 is_stmt 1
 603 001e 42F20F73 		movw	r3, #9999
 604 0022 9C42     		cmp	r4, r3
 605 0024 03D9     		bls	.L64
 606              		.loc 1 156 0 is_stmt 0 discriminator 1
 607 0026 0220     		movs	r0, #2
 608              	.LVL75:
 609 0028 FFF7FEFF 		bl	MyTurn
 610              	.LVL76:
 611 002c 27E0     		b	.L65
 612              	.LVL77:
 613              	.L64:
 157:Pathfinding.c ****             
 158:Pathfinding.c ****         }
 159:Pathfinding.c ****         else if(r3>=SENSOR_TH ){ MyTurn(TURN_SHARP_RIGHT);
 614              		.loc 1 159 0 is_stmt 1
 615 002e 42F20F73 		movw	r3, #9999
 616 0032 9945     		cmp	r9, r3
 617 0034 03D9     		bls	.L66
 618              		.loc 1 159 0 is_stmt 0 discriminator 1
 619 0036 0320     		movs	r0, #3
 620              	.LVL78:
 621 0038 FFF7FEFF 		bl	MyTurn
 622              	.LVL79:
 623 003c 1FE0     		b	.L65
 624              	.LVL80:
 625              	.L66:
 160:Pathfinding.c ****         }
 161:Pathfinding.c ****         
 162:Pathfinding.c ****         // 0100
 163:Pathfinding.c ****         else if (l3 < SENSOR_TH && l1 >= SENSOR_TH && r1 < SENSOR_TH && r3 < SENSOR_TH){
 626              		.loc 1 163 0 is_stmt 1
 627 003e 42F20F73 		movw	r3, #9999
 628 0042 9C42     		cmp	r4, r3
 629 0044 09D8     		bhi	.L67
 630              		.loc 1 163 0 is_stmt 0 discriminator 1
 631 0046 9F42     		cmp	r7, r3
 632 0048 07D9     		bls	.L67
 633              		.loc 1 163 0 discriminator 2
 634 004a 9E42     		cmp	r6, r3
 635 004c 05D8     		bhi	.L67
ARM GAS  C:\Users\NHANPH~1\AppData\Local\Temp\cck2yOPT.s 			page 15


 636              		.loc 1 163 0 discriminator 3
 637 004e 9945     		cmp	r9, r3
 638 0050 03D8     		bhi	.L67
 164:Pathfinding.c ****             MyTurn(TURN_LEFT);
 639              		.loc 1 164 0 is_stmt 1
 640 0052 0020     		movs	r0, #0
 641              	.LVL81:
 642 0054 FFF7FEFF 		bl	MyTurn
 643              	.LVL82:
 644 0058 11E0     		b	.L65
 645              	.LVL83:
 646              	.L67:
 165:Pathfinding.c ****         }
 166:Pathfinding.c ****         
 167:Pathfinding.c ****          //0010
 168:Pathfinding.c ****         else if (l3 < SENSOR_TH && l1 < SENSOR_TH && r1 >= SENSOR_TH && r3 < SENSOR_TH){
 647              		.loc 1 168 0
 648 005a 42F20F73 		movw	r3, #9999
 649 005e 9C42     		cmp	r4, r3
 650 0060 0DD8     		bhi	.L65
 651              		.loc 1 168 0 is_stmt 0 discriminator 1
 652 0062 9F42     		cmp	r7, r3
 653 0064 0BD8     		bhi	.L65
 654              		.loc 1 168 0 discriminator 2
 655 0066 9E42     		cmp	r6, r3
 656 0068 09D9     		bls	.L65
 657              		.loc 1 168 0 discriminator 3
 658 006a 9945     		cmp	r9, r3
 659 006c 07D8     		bhi	.L65
 169:Pathfinding.c ****             MyTurn(TURN_RIGHT);
 660              		.loc 1 169 0 is_stmt 1
 661 006e 0120     		movs	r0, #1
 662              	.LVL84:
 663 0070 FFF7FEFF 		bl	MyTurn
 664              	.LVL85:
 665 0074 03E0     		b	.L65
 666              	.LVL86:
 667              	.L63:
 170:Pathfinding.c ****         }
 171:Pathfinding.c ****     } 
 172:Pathfinding.c ****     
 173:Pathfinding.c ****     else {
 174:Pathfinding.c ****         motor_forward(MOTOR_SPEED,0);    
 668              		.loc 1 174 0
 669 0076 FF20     		movs	r0, #255
 670              	.LVL87:
 671 0078 0021     		movs	r1, #0
 672              	.LVL88:
 673 007a FFF7FEFF 		bl	motor_forward
 674              	.LVL89:
 675              	.L65:
 175:Pathfinding.c ****     }
 176:Pathfinding.c ****     
 177:Pathfinding.c ****     
 178:Pathfinding.c ****     if (*lastBlack == 1 && (l3 <SENSOR_TH || r3 < SENSOR_TH)) {
 676              		.loc 1 178 0
 677 007e 98F80030 		ldrb	r3, [r8]	@ zero_extendqisi2
ARM GAS  C:\Users\NHANPH~1\AppData\Local\Temp\cck2yOPT.s 			page 16


 678 0082 012B     		cmp	r3, #1
 679 0084 0ED1     		bne	.L68
 680              		.loc 1 178 0 is_stmt 0 discriminator 1
 681 0086 42F20F73 		movw	r3, #9999
 682 008a 9C42     		cmp	r4, r3
 683 008c 01D9     		bls	.L69
 684              		.loc 1 178 0 discriminator 2
 685 008e 9945     		cmp	r9, r3
 686 0090 08D8     		bhi	.L68
 687              	.L69:
 179:Pathfinding.c ****         *checkStop = *checkStop + 1;
 688              		.loc 1 179 0 is_stmt 1
 689 0092 2B78     		ldrb	r3, [r5]	@ zero_extendqisi2
 690 0094 0133     		adds	r3, r3, #1
 691 0096 2B70     		strb	r3, [r5]
 180:Pathfinding.c ****         BatteryLed_Write(1);
 692              		.loc 1 180 0
 693 0098 0120     		movs	r0, #1
 694 009a FFF7FEFF 		bl	BatteryLed_Write
 695              	.LVL90:
 181:Pathfinding.c ****         *lastBlack = 0;
 696              		.loc 1 181 0
 697 009e 0023     		movs	r3, #0
 698 00a0 88F80030 		strb	r3, [r8]
 699              	.L68:
 182:Pathfinding.c ****     }
 183:Pathfinding.c ****     
 184:Pathfinding.c ****     // STOP AT FINISH LINE
 185:Pathfinding.c ****     if(l3>=SENSOR_TH && l1>=SENSOR_TH && r1>=SENSOR_TH && r3>=SENSOR_TH) {
 700              		.loc 1 185 0
 701 00a4 42F20F73 		movw	r3, #9999
 702 00a8 9C42     		cmp	r4, r3
 703 00aa 08D9     		bls	.L70
 704              		.loc 1 185 0 is_stmt 0 discriminator 1
 705 00ac 9F42     		cmp	r7, r3
 706 00ae 06D9     		bls	.L70
 707              		.loc 1 185 0 discriminator 2
 708 00b0 9E42     		cmp	r6, r3
 709 00b2 04D9     		bls	.L70
 710              		.loc 1 185 0 discriminator 3
 711 00b4 9945     		cmp	r9, r3
 712 00b6 02D9     		bls	.L70
 186:Pathfinding.c ****         *lastBlack = 1;
 713              		.loc 1 186 0 is_stmt 1
 714 00b8 0123     		movs	r3, #1
 715 00ba 88F80030 		strb	r3, [r8]
 716              	.L70:
 187:Pathfinding.c ****     }    
 188:Pathfinding.c ****     
 189:Pathfinding.c ****     if (*checkStop>=2) {
 717              		.loc 1 189 0
 718 00be 2B78     		ldrb	r3, [r5]	@ zero_extendqisi2
 719 00c0 012B     		cmp	r3, #1
 720 00c2 07D9     		bls	.L61
 190:Pathfinding.c ****         *checkStop = 2;
 721              		.loc 1 190 0
 722 00c4 0223     		movs	r3, #2
ARM GAS  C:\Users\NHANPH~1\AppData\Local\Temp\cck2yOPT.s 			page 17


 723 00c6 2B70     		strb	r3, [r5]
 191:Pathfinding.c ****         motor_stop();
 724              		.loc 1 191 0
 725 00c8 FFF7FEFF 		bl	motor_stop
 726              	.LVL91:
 192:Pathfinding.c ****         CyDelay(3000);
 727              		.loc 1 192 0
 728 00cc 40F6B830 		movw	r0, #3000
 729 00d0 FFF7FEFF 		bl	CyDelay
 730              	.LVL92:
 731              	.L61:
 732 00d4 BDE8F883 		pop	{r3, r4, r5, r6, r7, r8, r9, pc}
 733              		.cfi_endproc
 734              	.LFE65:
 735              		.size	PathfindingAdv, .-PathfindingAdv
 736              		.section	.text.PathfindingBasic,"ax",%progbits
 737              		.align	2
 738              		.global	PathfindingBasic
 739              		.thumb
 740              		.thumb_func
 741              		.type	PathfindingBasic, %function
 742              	PathfindingBasic:
 743              	.LFB66:
 193:Pathfinding.c ****         //Playsound();
 194:Pathfinding.c ****     }             
 195:Pathfinding.c **** }
 196:Pathfinding.c **** 
 197:Pathfinding.c **** //Using Manh basic logic pathfinding
 198:Pathfinding.c **** void PathfindingBasic(uint16_t r1, uint16_t r3, uint16_t l1, uint16_t l3, uint8_t *checkStop, uint8
 199:Pathfinding.c **** {        
 744              		.loc 1 199 0
 745              		.cfi_startproc
 746              		@ args = 8, pretend = 0, frame = 0
 747              		@ frame_needed = 0, uses_anonymous_args = 0
 748              	.LVL93:
 749 0000 2DE9F843 		push	{r3, r4, r5, r6, r7, r8, r9, lr}
 750              		.cfi_def_cfa_offset 32
 751              		.cfi_offset 3, -32
 752              		.cfi_offset 4, -28
 753              		.cfi_offset 5, -24
 754              		.cfi_offset 6, -20
 755              		.cfi_offset 7, -16
 756              		.cfi_offset 8, -12
 757              		.cfi_offset 9, -8
 758              		.cfi_offset 14, -4
 759 0004 0646     		mov	r6, r0
 760 0006 8946     		mov	r9, r1
 761 0008 9046     		mov	r8, r2
 762 000a 1C46     		mov	r4, r3
 763 000c 089D     		ldr	r5, [sp, #32]
 764 000e 099F     		ldr	r7, [sp, #36]
 200:Pathfinding.c ****     if(r1<=SENSOR_TH || l1<=SENSOR_TH){
 765              		.loc 1 200 0
 766 0010 42F21073 		movw	r3, #10000
 767              	.LVL94:
 768 0014 9842     		cmp	r0, r3
 769 0016 01D9     		bls	.L74
ARM GAS  C:\Users\NHANPH~1\AppData\Local\Temp\cck2yOPT.s 			page 18


 770              		.loc 1 200 0 is_stmt 0 discriminator 1
 771 0018 9A42     		cmp	r2, r3
 772 001a 13D8     		bhi	.L75
 773              	.L74:
 201:Pathfinding.c ****        
 202:Pathfinding.c ****         if(l3>=SENSOR_TH){
 774              		.loc 1 202 0 is_stmt 1
 775 001c 42F20F73 		movw	r3, #9999
 776 0020 9C42     		cmp	r4, r3
 777 0022 05D9     		bls	.L76
 203:Pathfinding.c ****             motor_turn(0,MOTOR_SPEED,0);            
 778              		.loc 1 203 0
 779 0024 0020     		movs	r0, #0
 780              	.LVL95:
 781 0026 FF21     		movs	r1, #255
 782              	.LVL96:
 783 0028 0246     		mov	r2, r0
 784              	.LVL97:
 785 002a FFF7FEFF 		bl	motor_turn
 786              	.LVL98:
 787 002e 0DE0     		b	.L77
 788              	.LVL99:
 789              	.L76:
 204:Pathfinding.c ****         }
 205:Pathfinding.c ****         else if(r3>=SENSOR_TH ){
 790              		.loc 1 205 0
 791 0030 42F20F73 		movw	r3, #9999
 792 0034 9945     		cmp	r9, r3
 793 0036 09D9     		bls	.L77
 206:Pathfinding.c ****             motor_turn(MOTOR_SPEED,0,0);
 794              		.loc 1 206 0
 795 0038 FF20     		movs	r0, #255
 796              	.LVL100:
 797 003a 0021     		movs	r1, #0
 798              	.LVL101:
 799 003c 0A46     		mov	r2, r1
 800              	.LVL102:
 801 003e FFF7FEFF 		bl	motor_turn
 802              	.LVL103:
 803 0042 03E0     		b	.L77
 804              	.LVL104:
 805              	.L75:
 207:Pathfinding.c ****         }
 208:Pathfinding.c ****        
 209:Pathfinding.c ****     } else {
 210:Pathfinding.c ****          motor_forward(MOTOR_SPEED, 0);    
 806              		.loc 1 210 0
 807 0044 FF20     		movs	r0, #255
 808              	.LVL105:
 809 0046 0021     		movs	r1, #0
 810              	.LVL106:
 811 0048 FFF7FEFF 		bl	motor_forward
 812              	.LVL107:
 813              	.L77:
 211:Pathfinding.c ****     }
 212:Pathfinding.c ****     
 213:Pathfinding.c ****     
ARM GAS  C:\Users\NHANPH~1\AppData\Local\Temp\cck2yOPT.s 			page 19


 214:Pathfinding.c ****     if (*lastBlack == 1 && (l3 <SENSOR_TH || r3 < SENSOR_TH)) {
 814              		.loc 1 214 0
 815 004c 3B78     		ldrb	r3, [r7]	@ zero_extendqisi2
 816 004e 012B     		cmp	r3, #1
 817 0050 0DD1     		bne	.L78
 818              		.loc 1 214 0 is_stmt 0 discriminator 1
 819 0052 42F20F73 		movw	r3, #9999
 820 0056 9C42     		cmp	r4, r3
 821 0058 01D9     		bls	.L79
 822              		.loc 1 214 0 discriminator 2
 823 005a 9945     		cmp	r9, r3
 824 005c 07D8     		bhi	.L78
 825              	.L79:
 215:Pathfinding.c ****         *checkStop = *checkStop + 1;
 826              		.loc 1 215 0 is_stmt 1
 827 005e 2B78     		ldrb	r3, [r5]	@ zero_extendqisi2
 828 0060 0133     		adds	r3, r3, #1
 829 0062 2B70     		strb	r3, [r5]
 216:Pathfinding.c ****         BatteryLed_Write(1);
 830              		.loc 1 216 0
 831 0064 0120     		movs	r0, #1
 832 0066 FFF7FEFF 		bl	BatteryLed_Write
 833              	.LVL108:
 217:Pathfinding.c ****         *lastBlack = 0;
 834              		.loc 1 217 0
 835 006a 0023     		movs	r3, #0
 836 006c 3B70     		strb	r3, [r7]
 837              	.L78:
 218:Pathfinding.c ****     }
 219:Pathfinding.c ****     
 220:Pathfinding.c ****     // STOP AT FINISH LINE
 221:Pathfinding.c ****     if(l3>=SENSOR_TH && l1>=SENSOR_TH && r1>=SENSOR_TH && r3>=SENSOR_TH) {
 838              		.loc 1 221 0
 839 006e 42F20F73 		movw	r3, #9999
 840 0072 9C42     		cmp	r4, r3
 841 0074 07D9     		bls	.L80
 842              		.loc 1 221 0 is_stmt 0 discriminator 1
 843 0076 9845     		cmp	r8, r3
 844 0078 05D9     		bls	.L80
 845              		.loc 1 221 0 discriminator 2
 846 007a 9E42     		cmp	r6, r3
 847 007c 03D9     		bls	.L80
 848              		.loc 1 221 0 discriminator 3
 849 007e 9945     		cmp	r9, r3
 850 0080 01D9     		bls	.L80
 222:Pathfinding.c ****         *lastBlack = 1;
 851              		.loc 1 222 0 is_stmt 1
 852 0082 0123     		movs	r3, #1
 853 0084 3B70     		strb	r3, [r7]
 854              	.L80:
 223:Pathfinding.c ****     }    
 224:Pathfinding.c ****     
 225:Pathfinding.c ****     if (*checkStop>=2) {
 855              		.loc 1 225 0
 856 0086 2B78     		ldrb	r3, [r5]	@ zero_extendqisi2
 857 0088 012B     		cmp	r3, #1
 858 008a 07D9     		bls	.L73
ARM GAS  C:\Users\NHANPH~1\AppData\Local\Temp\cck2yOPT.s 			page 20


 226:Pathfinding.c ****         *checkStop = 2;
 859              		.loc 1 226 0
 860 008c 0223     		movs	r3, #2
 861 008e 2B70     		strb	r3, [r5]
 227:Pathfinding.c ****         motor_stop();
 862              		.loc 1 227 0
 863 0090 FFF7FEFF 		bl	motor_stop
 864              	.LVL109:
 228:Pathfinding.c ****         CyDelay(3000);
 865              		.loc 1 228 0
 866 0094 40F6B830 		movw	r0, #3000
 867 0098 FFF7FEFF 		bl	CyDelay
 868              	.LVL110:
 869              	.L73:
 870 009c BDE8F883 		pop	{r3, r4, r5, r6, r7, r8, r9, pc}
 871              		.cfi_endproc
 872              	.LFE66:
 873              		.size	PathfindingBasic, .-PathfindingBasic
 874              		.global	l3B
 875              		.global	l1B
 876              		.global	r1B
 877              		.global	r3B
 878              		.global	l3W
 879              		.global	l1W
 880              		.global	r1W
 881              		.global	r3W
 882              		.data
 883              		.align	2
 884              		.set	.LANCHOR0,. + 0
 885              		.type	l1W, %object
 886              		.size	l1W, 4
 887              	l1W:
 888 0000 740E0000 		.word	3700
 889              		.type	l1B, %object
 890              		.size	l1B, 4
 891              	l1B:
 892 0004 5C5D0000 		.word	23900
 893              		.type	r1W, %object
 894              		.size	r1W, 4
 895              	r1W:
 896 0008 CC100000 		.word	4300
 897              		.type	r1B, %object
 898              		.size	r1B, 4
 899              	r1B:
 900 000c 5C5D0000 		.word	23900
 901              		.type	l3B, %object
 902              		.size	l3B, 4
 903              	l3B:
 904 0010 5C5D0000 		.word	23900
 905              		.type	r3B, %object
 906              		.size	r3B, 4
 907              	r3B:
 908 0014 5C5D0000 		.word	23900
 909              		.type	l3W, %object
 910              		.size	l3W, 4
 911              	l3W:
 912 0018 88130000 		.word	5000
ARM GAS  C:\Users\NHANPH~1\AppData\Local\Temp\cck2yOPT.s 			page 21


 913              		.type	r3W, %object
 914              		.size	r3W, 4
 915              	r3W:
 916 001c 38180000 		.word	6200
 917              		.text
 918              	.Letext0:
 919              		.file 2 "c:\\program files (x86)\\cypress\\psoc creator\\4.0\\psoc creator\\import\\gnu\\arm\\4.9.
 920              		.file 3 "c:\\program files (x86)\\cypress\\psoc creator\\4.0\\psoc creator\\import\\gnu\\arm\\4.9.
 921              		.file 4 "Generated_Source\\PSoC5/cytypes.h"
 922              		.file 5 ".\\ZumoLibrary/Motor.h"
 923              		.file 6 "Generated_Source\\PSoC5/BatteryLed.h"
 924              		.file 7 "Generated_Source\\PSoC5/CyLib.h"
 925              		.file 8 "Generated_Source\\PSoC5/core_cm3.h"