ARM GAS  C:\Users\NHANPH~1\AppData\Local\Temp\ccfnT07h.s 			page 1


   1              		.syntax unified
   2              		.cpu cortex-m3
   3              		.fpu softvfp
   4              		.eabi_attribute 20, 1
   5              		.eabi_attribute 21, 1
   6              		.eabi_attribute 23, 3
   7              		.eabi_attribute 24, 1
   8              		.eabi_attribute 25, 1
   9              		.eabi_attribute 26, 1
  10              		.eabi_attribute 30, 1
  11              		.eabi_attribute 34, 1
  12              		.eabi_attribute 18, 4
  13              		.thumb
  14              		.file	"Playsound.c"
  15              		.text
  16              	.Ltext0:
  17              		.cfi_sections	.debug_frame
  18              		.section	.text.Dancing,"ax",%progbits
  19              		.align	2
  20              		.global	Dancing
  21              		.thumb
  22              		.thumb_func
  23              		.type	Dancing, %function
  24              	Dancing:
  25              	.LFB63:
  26              		.file 1 "Playsound.c"
   1:Playsound.c   **** /* ========================================
   2:Playsound.c   ****  *
   3:Playsound.c   ****  * Copyright YOUR COMPANY, THE YEAR
   4:Playsound.c   ****  * All Rights Reserved
   5:Playsound.c   ****  * UNPUBLISHED, LICENSED SOFTWARE.
   6:Playsound.c   ****  *
   7:Playsound.c   ****  * CONFIDENTIAL AND PROPRIETARY INFORMATION
   8:Playsound.c   ****  * WHICH IS THE PROPERTY OF your company.
   9:Playsound.c   ****  *
  10:Playsound.c   ****  * ========================================
  11:Playsound.c   **** */
  12:Playsound.c   **** #include <project.h>
  13:Playsound.c   **** #include "Playsound.h"
  14:Playsound.c   **** #include "Beep.h"
  15:Playsound.c   **** #include "Motor.h"
  16:Playsound.c   **** 
  17:Playsound.c   **** // Cuong's notes
  18:Playsound.c   **** /*
  19:Playsound.c   **** #define Re7 84
  20:Playsound.c   **** #define Dom7 87
  21:Playsound.c   **** #define Do7 94
  22:Playsound.c   **** #define Si6 100
  23:Playsound.c   **** #define La6 110
  24:Playsound.c   **** #define Sol6 125
  25:Playsound.c   **** #define Fa6 135
  26:Playsound.c   **** #define Mi6 148
  27:Playsound.c   **** #define Re6 168
  28:Playsound.c   **** #define Do6 183
  29:Playsound.c   **** #define Si5 200
  30:Playsound.c   **** #define La5 223
  31:Playsound.c   **** #define Sol5 250
ARM GAS  C:\Users\NHANPH~1\AppData\Local\Temp\ccfnT07h.s 			page 2


  32:Playsound.c   **** */
  33:Playsound.c   **** 
  34:Playsound.c   **** #define D6 84
  35:Playsound.c   **** #define Cm6 87
  36:Playsound.c   **** #define C6 94
  37:Playsound.c   **** #define B7 100
  38:Playsound.c   **** #define A7 110
  39:Playsound.c   **** #define G7 125
  40:Playsound.c   **** #define F7 135
  41:Playsound.c   **** #define E7 148
  42:Playsound.c   **** #define D7 168
  43:Playsound.c   **** #define C7 183
  44:Playsound.c   **** #define B8 200
  45:Playsound.c   **** #define A8 223
  46:Playsound.c   **** #define G8 250
  47:Playsound.c   **** #define SPEED 200
  48:Playsound.c   **** 
  49:Playsound.c   **** /*
  50:Playsound.c   **** #define D7 255
  51:Playsound.c   **** #define Dm7 250
  52:Playsound.c   **** #define E7 230
  53:Playsound.c   **** #define F7 215
  54:Playsound.c   **** #define Fm7 205
  55:Playsound.c   **** #define G7 190
  56:Playsound.c   **** #define Gm7 175
  57:Playsound.c   **** #define A7 160
  58:Playsound.c   **** #define B7 145
  59:Playsound.c   **** #define C6 130
  60:Playsound.c   **** #define Cm6 120
  61:Playsound.c   **** #define D6 115
  62:Playsound.c   **** */
  63:Playsound.c   **** 
  64:Playsound.c   **** void Dancing(uint32 length, uint8 pitch, uint8_t *i) {
  27              		.loc 1 64 0
  28              		.cfi_startproc
  29              		@ args = 0, pretend = 0, frame = 0
  30              		@ frame_needed = 0, uses_anonymous_args = 0
  31              	.LVL0:
  32 0000 38B5     		push	{r3, r4, r5, lr}
  33              		.cfi_def_cfa_offset 16
  34              		.cfi_offset 3, -16
  35              		.cfi_offset 4, -12
  36              		.cfi_offset 5, -8
  37              		.cfi_offset 14, -4
  38 0002 0546     		mov	r5, r0
  39 0004 1446     		mov	r4, r2
  65:Playsound.c   ****     Beep(length, pitch);
  40              		.loc 1 65 0
  41 0006 FFF7FEFF 		bl	Beep
  42              	.LVL1:
  66:Playsound.c   ****     if (*i == 0) {
  43              		.loc 1 66 0
  44 000a 2378     		ldrb	r3, [r4]	@ zero_extendqisi2
  45 000c 6BB9     		cbnz	r3, .L2
  67:Playsound.c   ****         BatteryLed_Write(1);
  46              		.loc 1 67 0
  47 000e 0120     		movs	r0, #1
ARM GAS  C:\Users\NHANPH~1\AppData\Local\Temp\ccfnT07h.s 			page 3


  48 0010 FFF7FEFF 		bl	BatteryLed_Write
  49              	.LVL2:
  68:Playsound.c   ****         IR_led_Write(1);
  50              		.loc 1 68 0
  51 0014 0120     		movs	r0, #1
  52 0016 FFF7FEFF 		bl	IR_led_Write
  53              	.LVL3:
  69:Playsound.c   ****         *i = 1;
  54              		.loc 1 69 0
  55 001a 0123     		movs	r3, #1
  56 001c 2370     		strb	r3, [r4]
  70:Playsound.c   ****         motor_forward(SPEED, length/2);
  57              		.loc 1 70 0
  58 001e C820     		movs	r0, #200
  59 0020 25FA03F1 		lsr	r1, r5, r3
  60 0024 FFF7FEFF 		bl	motor_forward
  61              	.LVL4:
  62 0028 38BD     		pop	{r3, r4, r5, pc}
  63              	.LVL5:
  64              	.L2:
  71:Playsound.c   ****     } else {
  72:Playsound.c   ****         BatteryLed_Write(0);
  65              		.loc 1 72 0
  66 002a 0020     		movs	r0, #0
  67 002c FFF7FEFF 		bl	BatteryLed_Write
  68              	.LVL6:
  73:Playsound.c   ****         IR_led_Write(0);
  69              		.loc 1 73 0
  70 0030 0020     		movs	r0, #0
  71 0032 FFF7FEFF 		bl	IR_led_Write
  72              	.LVL7:
  74:Playsound.c   ****         *i = 0;
  73              		.loc 1 74 0
  74 0036 0023     		movs	r3, #0
  75 0038 2370     		strb	r3, [r4]
  75:Playsound.c   ****         motor_backward(SPEED, length/2);
  76              		.loc 1 75 0
  77 003a C820     		movs	r0, #200
  78 003c 6908     		lsrs	r1, r5, #1
  79 003e FFF7FEFF 		bl	motor_backward
  80              	.LVL8:
  81 0042 38BD     		pop	{r3, r4, r5, pc}
  82              		.cfi_endproc
  83              	.LFE63:
  84              		.size	Dancing, .-Dancing
  85              		.section	.text.Playsound,"ax",%progbits
  86              		.align	2
  87              		.global	Playsound
  88              		.thumb
  89              		.thumb_func
  90              		.type	Playsound, %function
  91              	Playsound:
  92              	.LFB64:
  76:Playsound.c   ****     }
  77:Playsound.c   ****     
  78:Playsound.c   **** }
  79:Playsound.c   **** 
ARM GAS  C:\Users\NHANPH~1\AppData\Local\Temp\ccfnT07h.s 			page 4


  80:Playsound.c   **** void Playsound(){
  93              		.loc 1 80 0
  94              		.cfi_startproc
  95              		@ args = 0, pretend = 0, frame = 8
  96              		@ frame_needed = 0, uses_anonymous_args = 0
  97 0000 30B5     		push	{r4, r5, lr}
  98              		.cfi_def_cfa_offset 12
  99              		.cfi_offset 4, -12
 100              		.cfi_offset 5, -8
 101              		.cfi_offset 14, -4
 102 0002 83B0     		sub	sp, sp, #12
 103              		.cfi_def_cfa_offset 24
  81:Playsound.c   ****     uint8_t i = 0;
 104              		.loc 1 81 0
 105 0004 0025     		movs	r5, #0
 106 0006 02AC     		add	r4, sp, #8
 107 0008 04F8015D 		strb	r5, [r4, #-1]!
  82:Playsound.c   ****     motor_start();
 108              		.loc 1 82 0
 109 000c FFF7FEFF 		bl	motor_start
 110              	.LVL9:
  83:Playsound.c   ****     Dancing(120, D6, &i);
 111              		.loc 1 83 0
 112 0010 7820     		movs	r0, #120
 113 0012 5421     		movs	r1, #84
 114 0014 2246     		mov	r2, r4
 115 0016 FFF7FEFF 		bl	Dancing
 116              	.LVL10:
  84:Playsound.c   ****     CyDelay(30);
 117              		.loc 1 84 0
 118 001a 1E20     		movs	r0, #30
 119 001c FFF7FEFF 		bl	CyDelay
 120              	.LVL11:
  85:Playsound.c   ****     Dancing(120, D6, &i);
 121              		.loc 1 85 0
 122 0020 7820     		movs	r0, #120
 123 0022 5421     		movs	r1, #84
 124 0024 2246     		mov	r2, r4
 125 0026 FFF7FEFF 		bl	Dancing
 126              	.LVL12:
  86:Playsound.c   ****     CyDelay(30);
 127              		.loc 1 86 0
 128 002a 1E20     		movs	r0, #30
 129 002c FFF7FEFF 		bl	CyDelay
 130              	.LVL13:
  87:Playsound.c   ****     Dancing(120, D6, &i);
 131              		.loc 1 87 0
 132 0030 7820     		movs	r0, #120
 133 0032 5421     		movs	r1, #84
 134 0034 2246     		mov	r2, r4
 135 0036 FFF7FEFF 		bl	Dancing
 136              	.LVL14:
  88:Playsound.c   ****     CyDelay(30);
 137              		.loc 1 88 0
 138 003a 1E20     		movs	r0, #30
 139 003c FFF7FEFF 		bl	CyDelay
 140              	.LVL15:
ARM GAS  C:\Users\NHANPH~1\AppData\Local\Temp\ccfnT07h.s 			page 5


  89:Playsound.c   ****     Dancing(150, D6, &i);
 141              		.loc 1 89 0
 142 0040 9620     		movs	r0, #150
 143 0042 5421     		movs	r1, #84
 144 0044 2246     		mov	r2, r4
 145 0046 FFF7FEFF 		bl	Dancing
 146              	.LVL16:
  90:Playsound.c   ****     
  91:Playsound.c   ****     
  92:Playsound.c   ****     // F#7 + B7
  93:Playsound.c   ****     Dancing(300, 175, &i);     
 147              		.loc 1 93 0
 148 004a 4FF49670 		mov	r0, #300
 149 004e AF21     		movs	r1, #175
 150 0050 2246     		mov	r2, r4
 151 0052 FFF7FEFF 		bl	Dancing
 152              	.LVL17:
  94:Playsound.c   ****     
  95:Playsound.c   ****   
  96:Playsound.c   ****     // E7 + C6
  97:Playsound.c   ****     Dancing(300, 155, &i); 
 153              		.loc 1 97 0
 154 0056 4FF49670 		mov	r0, #300
 155 005a 9B21     		movs	r1, #155
 156 005c 2246     		mov	r2, r4
 157 005e FFF7FEFF 		bl	Dancing
 158              	.LVL18:
  98:Playsound.c   ****     CyDelay(10);
 159              		.loc 1 98 0
 160 0062 0A20     		movs	r0, #10
 161 0064 FFF7FEFF 		bl	CyDelay
 162              	.LVL19:
  99:Playsound.c   ****     
 100:Playsound.c   ****     
 101:Playsound.c   ****     // F7 + D6
 102:Playsound.c   ****     Dancing(150, 135, &i); 
 163              		.loc 1 102 0
 164 0068 9620     		movs	r0, #150
 165 006a 8721     		movs	r1, #135
 166 006c 2246     		mov	r2, r4
 167 006e FFF7FEFF 		bl	Dancing
 168              	.LVL20:
 103:Playsound.c   ****      
 104:Playsound.c   ****     
 105:Playsound.c   ****     // E7 + C6
 106:Playsound.c   ****     Dancing(150, 155, &i); 
 169              		.loc 1 106 0
 170 0072 9620     		movs	r0, #150
 171 0074 9B21     		movs	r1, #155
 172 0076 2246     		mov	r2, r4
 173 0078 FFF7FEFF 		bl	Dancing
 174              	.LVL21:
 107:Playsound.c   ****     
 108:Playsound.c   ****     
 109:Playsound.c   ****     // F7 + D6
 110:Playsound.c   ****     Dancing(600, 135, &i); 
 175              		.loc 1 110 0
ARM GAS  C:\Users\NHANPH~1\AppData\Local\Temp\ccfnT07h.s 			page 6


 176 007c 4FF41670 		mov	r0, #600
 177 0080 8721     		movs	r1, #135
 178 0082 2246     		mov	r2, r4
 179 0084 FFF7FEFF 		bl	Dancing
 180              	.LVL22:
 111:Playsound.c   ****     CyDelay(50);  
 181              		.loc 1 111 0
 182 0088 3220     		movs	r0, #50
 183 008a FFF7FEFF 		bl	CyDelay
 184              	.LVL23:
 112:Playsound.c   ****     
 113:Playsound.c   ****        
 114:Playsound.c   ****     // A G A G C6
 115:Playsound.c   ****     Dancing(300, A7, &i);
 185              		.loc 1 115 0
 186 008e 4FF49670 		mov	r0, #300
 187 0092 6E21     		movs	r1, #110
 188 0094 2246     		mov	r2, r4
 189 0096 FFF7FEFF 		bl	Dancing
 190              	.LVL24:
 116:Playsound.c   ****     Dancing(300, G7, &i); 
 191              		.loc 1 116 0
 192 009a 4FF49670 		mov	r0, #300
 193 009e 7D21     		movs	r1, #125
 194 00a0 2246     		mov	r2, r4
 195 00a2 FFF7FEFF 		bl	Dancing
 196              	.LVL25:
 117:Playsound.c   ****     Dancing(300, A7, &i);
 197              		.loc 1 117 0
 198 00a6 4FF49670 		mov	r0, #300
 199 00aa 6E21     		movs	r1, #110
 200 00ac 2246     		mov	r2, r4
 201 00ae FFF7FEFF 		bl	Dancing
 202              	.LVL26:
 118:Playsound.c   ****     Dancing(150, G7, &i); 
 203              		.loc 1 118 0
 204 00b2 9620     		movs	r0, #150
 205 00b4 7D21     		movs	r1, #125
 206 00b6 2246     		mov	r2, r4
 207 00b8 FFF7FEFF 		bl	Dancing
 208              	.LVL27:
 119:Playsound.c   ****     Dancing(150, C6, &i);
 209              		.loc 1 119 0
 210 00bc 9620     		movs	r0, #150
 211 00be 5E21     		movs	r1, #94
 212 00c0 2246     		mov	r2, r4
 213 00c2 FFF7FEFF 		bl	Dancing
 214              	.LVL28:
 120:Playsound.c   ****     
 121:Playsound.c   ****         
 122:Playsound.c   ****     Dancing(150, Cm6, &i);
 215              		.loc 1 122 0
 216 00c6 9620     		movs	r0, #150
 217 00c8 5721     		movs	r1, #87
 218 00ca 2246     		mov	r2, r4
 219 00cc FFF7FEFF 		bl	Dancing
 220              	.LVL29:
ARM GAS  C:\Users\NHANPH~1\AppData\Local\Temp\ccfnT07h.s 			page 7


 123:Playsound.c   ****     Dancing(150, C6, &i);
 221              		.loc 1 123 0
 222 00d0 9620     		movs	r0, #150
 223 00d2 5E21     		movs	r1, #94
 224 00d4 2246     		mov	r2, r4
 225 00d6 FFF7FEFF 		bl	Dancing
 226              	.LVL30:
 124:Playsound.c   ****     Dancing(300, B7, &i);
 227              		.loc 1 124 0
 228 00da 4FF49670 		mov	r0, #300
 229 00de 6421     		movs	r1, #100
 230 00e0 2246     		mov	r2, r4
 231 00e2 FFF7FEFF 		bl	Dancing
 232              	.LVL31:
 125:Playsound.c   ****     Dancing(150, Cm6, &i);
 233              		.loc 1 125 0
 234 00e6 9620     		movs	r0, #150
 235 00e8 5721     		movs	r1, #87
 236 00ea 2246     		mov	r2, r4
 237 00ec FFF7FEFF 		bl	Dancing
 238              	.LVL32:
 126:Playsound.c   ****     Dancing(300, B7, &i);
 239              		.loc 1 126 0
 240 00f0 4FF49670 		mov	r0, #300
 241 00f4 6421     		movs	r1, #100
 242 00f6 2246     		mov	r2, r4
 243 00f8 FFF7FEFF 		bl	Dancing
 244              	.LVL33:
 127:Playsound.c   ****     Dancing(150, B7, &i);
 245              		.loc 1 127 0
 246 00fc 9620     		movs	r0, #150
 247 00fe 6421     		movs	r1, #100
 248 0100 2246     		mov	r2, r4
 249 0102 FFF7FEFF 		bl	Dancing
 250              	.LVL34:
 128:Playsound.c   ****     
 129:Playsound.c   ****     
 130:Playsound.c   ****     Dancing(300, A7, &i);
 251              		.loc 1 130 0
 252 0106 4FF49670 		mov	r0, #300
 253 010a 6E21     		movs	r1, #110
 254 010c 2246     		mov	r2, r4
 255 010e FFF7FEFF 		bl	Dancing
 256              	.LVL35:
 131:Playsound.c   ****     Dancing(300, G7, &i);
 257              		.loc 1 131 0
 258 0112 4FF49670 		mov	r0, #300
 259 0116 7D21     		movs	r1, #125
 260 0118 2246     		mov	r2, r4
 261 011a FFF7FEFF 		bl	Dancing
 262              	.LVL36:
 132:Playsound.c   ****     Dancing(300, F7, &i);
 263              		.loc 1 132 0
 264 011e 4FF49670 		mov	r0, #300
 265 0122 8721     		movs	r1, #135
 266 0124 2246     		mov	r2, r4
 267 0126 FFF7FEFF 		bl	Dancing
ARM GAS  C:\Users\NHANPH~1\AppData\Local\Temp\ccfnT07h.s 			page 8


 268              	.LVL37:
 133:Playsound.c   ****     Dancing(150, G7, &i);
 269              		.loc 1 133 0
 270 012a 9620     		movs	r0, #150
 271 012c 7D21     		movs	r1, #125
 272 012e 2246     		mov	r2, r4
 273 0130 FFF7FEFF 		bl	Dancing
 274              	.LVL38:
 134:Playsound.c   ****     Dancing(150, E7, &i);
 275              		.loc 1 134 0
 276 0134 9620     		movs	r0, #150
 277 0136 9421     		movs	r1, #148
 278 0138 2246     		mov	r2, r4
 279 013a FFF7FEFF 		bl	Dancing
 280              	.LVL39:
 135:Playsound.c   ****     Beep(1200, E7);
 281              		.loc 1 135 0
 282 013e 4FF49660 		mov	r0, #1200
 283 0142 9421     		movs	r1, #148
 284 0144 FFF7FEFF 		bl	Beep
 285              	.LVL40:
 136:Playsound.c   ****     motor_turn(SPEED,0,600);
 286              		.loc 1 136 0
 287 0148 C820     		movs	r0, #200
 288 014a 2946     		mov	r1, r5
 289 014c 4FF41672 		mov	r2, #600
 290 0150 FFF7FEFF 		bl	motor_turn
 291              	.LVL41:
 137:Playsound.c   ****     
 138:Playsound.c   ****     
 139:Playsound.c   ****     
 140:Playsound.c   ****     CyDelay(250);
 292              		.loc 1 140 0
 293 0154 FA20     		movs	r0, #250
 294 0156 FFF7FEFF 		bl	CyDelay
 295              	.LVL42:
 141:Playsound.c   ****     
 142:Playsound.c   ****     // A G A G C6
 143:Playsound.c   ****     Dancing(300, A7, &i);
 296              		.loc 1 143 0
 297 015a 4FF49670 		mov	r0, #300
 298 015e 6E21     		movs	r1, #110
 299 0160 2246     		mov	r2, r4
 300 0162 FFF7FEFF 		bl	Dancing
 301              	.LVL43:
 144:Playsound.c   ****     Dancing(300, G7, &i); 
 302              		.loc 1 144 0
 303 0166 4FF49670 		mov	r0, #300
 304 016a 7D21     		movs	r1, #125
 305 016c 2246     		mov	r2, r4
 306 016e FFF7FEFF 		bl	Dancing
 307              	.LVL44:
 145:Playsound.c   ****     Dancing(300, A7, &i);
 308              		.loc 1 145 0
 309 0172 4FF49670 		mov	r0, #300
 310 0176 6E21     		movs	r1, #110
 311 0178 2246     		mov	r2, r4
ARM GAS  C:\Users\NHANPH~1\AppData\Local\Temp\ccfnT07h.s 			page 9


 312 017a FFF7FEFF 		bl	Dancing
 313              	.LVL45:
 146:Playsound.c   ****     Dancing(150, G7, &i); 
 314              		.loc 1 146 0
 315 017e 9620     		movs	r0, #150
 316 0180 7D21     		movs	r1, #125
 317 0182 2246     		mov	r2, r4
 318 0184 FFF7FEFF 		bl	Dancing
 319              	.LVL46:
 147:Playsound.c   ****     Dancing(150, C6, &i);
 320              		.loc 1 147 0
 321 0188 9620     		movs	r0, #150
 322 018a 5E21     		movs	r1, #94
 323 018c 2246     		mov	r2, r4
 324 018e FFF7FEFF 		bl	Dancing
 325              	.LVL47:
 148:Playsound.c   ****     
 149:Playsound.c   ****     
 150:Playsound.c   ****     Dancing(150, Cm6, &i);
 326              		.loc 1 150 0
 327 0192 9620     		movs	r0, #150
 328 0194 5721     		movs	r1, #87
 329 0196 2246     		mov	r2, r4
 330 0198 FFF7FEFF 		bl	Dancing
 331              	.LVL48:
 151:Playsound.c   ****     Dancing(150, C6, &i);
 332              		.loc 1 151 0
 333 019c 9620     		movs	r0, #150
 334 019e 5E21     		movs	r1, #94
 335 01a0 2246     		mov	r2, r4
 336 01a2 FFF7FEFF 		bl	Dancing
 337              	.LVL49:
 152:Playsound.c   ****     Dancing(300, B7, &i);
 338              		.loc 1 152 0
 339 01a6 4FF49670 		mov	r0, #300
 340 01aa 6421     		movs	r1, #100
 341 01ac 2246     		mov	r2, r4
 342 01ae FFF7FEFF 		bl	Dancing
 343              	.LVL50:
 153:Playsound.c   ****     Dancing(150, Cm6, &i);
 344              		.loc 1 153 0
 345 01b2 9620     		movs	r0, #150
 346 01b4 5721     		movs	r1, #87
 347 01b6 2246     		mov	r2, r4
 348 01b8 FFF7FEFF 		bl	Dancing
 349              	.LVL51:
 154:Playsound.c   ****     Dancing(450, B7, &i);
 350              		.loc 1 154 0
 351 01bc 4FF4E170 		mov	r0, #450
 352 01c0 6421     		movs	r1, #100
 353 01c2 2246     		mov	r2, r4
 354 01c4 FFF7FEFF 		bl	Dancing
 355              	.LVL52:
 155:Playsound.c   ****     
 156:Playsound.c   ****     
 157:Playsound.c   ****     
 158:Playsound.c   ****     Dancing(300, A7, &i);
ARM GAS  C:\Users\NHANPH~1\AppData\Local\Temp\ccfnT07h.s 			page 10


 356              		.loc 1 158 0
 357 01c8 4FF49670 		mov	r0, #300
 358 01cc 6E21     		movs	r1, #110
 359 01ce 2246     		mov	r2, r4
 360 01d0 FFF7FEFF 		bl	Dancing
 361              	.LVL53:
 159:Playsound.c   ****     Dancing(300, G7, &i);
 362              		.loc 1 159 0
 363 01d4 4FF49670 		mov	r0, #300
 364 01d8 7D21     		movs	r1, #125
 365 01da 2246     		mov	r2, r4
 366 01dc FFF7FEFF 		bl	Dancing
 367              	.LVL54:
 160:Playsound.c   ****     Dancing(300, A7, &i);
 368              		.loc 1 160 0
 369 01e0 4FF49670 		mov	r0, #300
 370 01e4 6E21     		movs	r1, #110
 371 01e6 2246     		mov	r2, r4
 372 01e8 FFF7FEFF 		bl	Dancing
 373              	.LVL55:
 161:Playsound.c   ****     Dancing(150, C6, &i);
 374              		.loc 1 161 0
 375 01ec 9620     		movs	r0, #150
 376 01ee 5E21     		movs	r1, #94
 377 01f0 2246     		mov	r2, r4
 378 01f2 FFF7FEFF 		bl	Dancing
 379              	.LVL56:
 162:Playsound.c   ****     Dancing(150, D6, &i);    
 380              		.loc 1 162 0
 381 01f6 9620     		movs	r0, #150
 382 01f8 5421     		movs	r1, #84
 383 01fa 2246     		mov	r2, r4
 384 01fc FFF7FEFF 		bl	Dancing
 385              	.LVL57:
 163:Playsound.c   ****  
 164:Playsound.c   ****     
 165:Playsound.c   ****     Beep(1200, D6);
 386              		.loc 1 165 0
 387 0200 4FF49660 		mov	r0, #1200
 388 0204 5421     		movs	r1, #84
 389 0206 FFF7FEFF 		bl	Beep
 390              	.LVL58:
 166:Playsound.c   ****     motor_turn(0, SPEED, 600);
 391              		.loc 1 166 0
 392 020a 2846     		mov	r0, r5
 393 020c C821     		movs	r1, #200
 394 020e 4FF41672 		mov	r2, #600
 395 0212 FFF7FEFF 		bl	motor_turn
 396              	.LVL59:
 167:Playsound.c   **** }
 397              		.loc 1 167 0
 398 0216 03B0     		add	sp, sp, #12
 399              		.cfi_def_cfa_offset 12
 400              		@ sp needed
 401 0218 30BD     		pop	{r4, r5, pc}
 402              		.cfi_endproc
 403              	.LFE64:
ARM GAS  C:\Users\NHANPH~1\AppData\Local\Temp\ccfnT07h.s 			page 11


 404              		.size	Playsound, .-Playsound
 405 021a 00BF     		.text
 406              	.Letext0:
 407              		.file 2 "c:\\program files (x86)\\cypress\\psoc creator\\4.0\\psoc creator\\import\\gnu\\arm\\4.9.
 408              		.file 3 "c:\\program files (x86)\\cypress\\psoc creator\\4.0\\psoc creator\\import\\gnu\\arm\\4.9.
 409              		.file 4 "Generated_Source\\PSoC5/cytypes.h"
 410              		.file 5 ".\\ZumoLibrary/Beep.h"
 411              		.file 6 "Generated_Source\\PSoC5/BatteryLed.h"
 412              		.file 7 "Generated_Source\\PSoC5/IR_led.h"
 413              		.file 8 ".\\ZumoLibrary/Motor.h"
 414              		.file 9 "Generated_Source\\PSoC5/CyLib.h"
 415              		.file 10 "Generated_Source\\PSoC5/core_cm3.h"