ARM GAS  C:\Users\NHANPH~1\AppData\Local\Temp\ccKt5nHW.s 			page 1


   1              		.syntax unified
   2              		.cpu cortex-m3
   3              		.fpu softvfp
   4              		.eabi_attribute 20, 1
   5              		.eabi_attribute 21, 1
   6              		.eabi_attribute 23, 3
   7              		.eabi_attribute 24, 1
   8              		.eabi_attribute 25, 1
   9              		.eabi_attribute 26, 1
  10              		.eabi_attribute 30, 1
  11              		.eabi_attribute 34, 1
  12              		.eabi_attribute 18, 4
  13              		.thumb
  14              		.file	"Reflectance.c"
  15              		.text
  16              	.Ltext0:
  17              		.cfi_sections	.debug_frame
  18              		.section	.text.sensor_isr_handler,"ax",%progbits
  19              		.align	2
  20              		.global	sensor_isr_handler
  21              		.thumb
  22              		.thumb_func
  23              		.type	sensor_isr_handler, %function
  24              	sensor_isr_handler:
  25              	.LFB63:
  26              		.file 1 "ZumoLibrary\\Reflectance.c"
   1:ZumoLibrary/Reflectance.c **** /**
   2:ZumoLibrary/Reflectance.c ****  * @file    Reflectance.c
   3:ZumoLibrary/Reflectance.c ****  * @brief   Basic methods for operating reflectance sensor. For more details, please refer to Refle
   4:ZumoLibrary/Reflectance.c ****  * @details included in Zumo shield
   5:ZumoLibrary/Reflectance.c **** */
   6:ZumoLibrary/Reflectance.c **** #include <project.h>
   7:ZumoLibrary/Reflectance.c **** #include <stdio.h>
   8:ZumoLibrary/Reflectance.c **** 
   9:ZumoLibrary/Reflectance.c **** #include "Reflectance.h"
  10:ZumoLibrary/Reflectance.c **** 
  11:ZumoLibrary/Reflectance.c **** static volatile struct sensors_ sensors;
  12:ZumoLibrary/Reflectance.c **** static volatile struct sensors_  digital_sensor_value;
  13:ZumoLibrary/Reflectance.c **** static struct sensors_ threshold = { 10000, 10000, 10000, 10000};
  14:ZumoLibrary/Reflectance.c **** 
  15:ZumoLibrary/Reflectance.c **** /**
  16:ZumoLibrary/Reflectance.c **** * @brief    Reflectance Sensor Interrupt Handler
  17:ZumoLibrary/Reflectance.c **** * @details  Measuring each sensors' time to recognition of white or black
  18:ZumoLibrary/Reflectance.c **** */
  19:ZumoLibrary/Reflectance.c **** CY_ISR(sensor_isr_handler)
  20:ZumoLibrary/Reflectance.c **** {
  27              		.loc 1 20 0
  28              		.cfi_startproc
  29              		@ args = 0, pretend = 0, frame = 0
  30              		@ frame_needed = 0, uses_anonymous_args = 0
  31 0000 F8B5     		push	{r3, r4, r5, r6, r7, lr}
  32              		.cfi_def_cfa_offset 24
  33              		.cfi_offset 3, -24
  34              		.cfi_offset 4, -20
  35              		.cfi_offset 5, -16
  36              		.cfi_offset 6, -12
  37              		.cfi_offset 7, -8
ARM GAS  C:\Users\NHANPH~1\AppData\Local\Temp\ccKt5nHW.s 			page 2


  38              		.cfi_offset 14, -4
  21:ZumoLibrary/Reflectance.c ****     uint32_t statusR1 = Timer_R1_ReadStatusRegister();
  39              		.loc 1 21 0
  40 0002 FFF7FEFF 		bl	Timer_R1_ReadStatusRegister
  41              	.LVL0:
  42 0006 0446     		mov	r4, r0
  43              	.LVL1:
  22:ZumoLibrary/Reflectance.c ****     uint32_t statusR3 = Timer_R3_ReadStatusRegister();
  44              		.loc 1 22 0
  45 0008 FFF7FEFF 		bl	Timer_R3_ReadStatusRegister
  46              	.LVL2:
  47 000c 0746     		mov	r7, r0
  48              	.LVL3:
  23:ZumoLibrary/Reflectance.c ****     uint32_t statusL3 = Timer_L3_ReadStatusRegister();
  49              		.loc 1 23 0
  50 000e FFF7FEFF 		bl	Timer_L3_ReadStatusRegister
  51              	.LVL4:
  52 0012 0646     		mov	r6, r0
  53              	.LVL5:
  24:ZumoLibrary/Reflectance.c ****     uint32_t statusL1 = Timer_L1_ReadStatusRegister();
  54              		.loc 1 24 0
  55 0014 FFF7FEFF 		bl	Timer_L1_ReadStatusRegister
  56              	.LVL6:
  57 0018 0546     		mov	r5, r0
  58              	.LVL7:
  25:ZumoLibrary/Reflectance.c **** 
  26:ZumoLibrary/Reflectance.c ****     if(statusR1 & Timer_R1_STATUS_CAPTURE) {
  59              		.loc 1 26 0
  60 001a 14F0400F 		tst	r4, #64
  61 001e 09D0     		beq	.L2
  27:ZumoLibrary/Reflectance.c ****         sensors.r1 = Timer_R1_ReadPeriod() - Timer_R1_ReadCapture();
  62              		.loc 1 27 0
  63 0020 FFF7FEFF 		bl	Timer_R1_ReadPeriod
  64              	.LVL8:
  65 0024 0446     		mov	r4, r0
  66              	.LVL9:
  67 0026 FFF7FEFF 		bl	Timer_R1_ReadCapture
  68              	.LVL10:
  69 002a 201A     		subs	r0, r4, r0
  70 002c 80B2     		uxth	r0, r0
  71 002e 354B     		ldr	r3, .L11
  72 0030 9880     		strh	r0, [r3, #4]	@ movhi
  73 0032 03E0     		b	.L3
  74              	.LVL11:
  75              	.L2:
  28:ZumoLibrary/Reflectance.c ****     }
  29:ZumoLibrary/Reflectance.c ****     else {
  30:ZumoLibrary/Reflectance.c ****         sensors.r1 = Timer_R1_ReadPeriod();
  76              		.loc 1 30 0
  77 0034 FFF7FEFF 		bl	Timer_R1_ReadPeriod
  78              	.LVL12:
  79 0038 324B     		ldr	r3, .L11
  80 003a 9880     		strh	r0, [r3, #4]	@ movhi
  81              	.LVL13:
  82              	.L3:
  31:ZumoLibrary/Reflectance.c ****     }
  32:ZumoLibrary/Reflectance.c ****     
ARM GAS  C:\Users\NHANPH~1\AppData\Local\Temp\ccKt5nHW.s 			page 3


  33:ZumoLibrary/Reflectance.c ****     if(statusR3 & Timer_R3_STATUS_CAPTURE) {
  83              		.loc 1 33 0
  84 003c 17F0400F 		tst	r7, #64
  85 0040 09D0     		beq	.L4
  34:ZumoLibrary/Reflectance.c ****         sensors.r3 = Timer_R3_ReadPeriod() - Timer_R3_ReadCapture();
  86              		.loc 1 34 0
  87 0042 FFF7FEFF 		bl	Timer_R3_ReadPeriod
  88              	.LVL14:
  89 0046 0446     		mov	r4, r0
  90 0048 FFF7FEFF 		bl	Timer_R3_ReadCapture
  91              	.LVL15:
  92 004c 201A     		subs	r0, r4, r0
  93 004e 80B2     		uxth	r0, r0
  94 0050 2C4B     		ldr	r3, .L11
  95 0052 D880     		strh	r0, [r3, #6]	@ movhi
  96 0054 03E0     		b	.L5
  97              	.L4:
  35:ZumoLibrary/Reflectance.c ****     }
  36:ZumoLibrary/Reflectance.c ****     else {
  37:ZumoLibrary/Reflectance.c ****         sensors.r3 = Timer_R3_ReadPeriod();
  98              		.loc 1 37 0
  99 0056 FFF7FEFF 		bl	Timer_R3_ReadPeriod
 100              	.LVL16:
 101 005a 2A4B     		ldr	r3, .L11
 102 005c D880     		strh	r0, [r3, #6]	@ movhi
 103              	.L5:
  38:ZumoLibrary/Reflectance.c ****     }
  39:ZumoLibrary/Reflectance.c ****     
  40:ZumoLibrary/Reflectance.c ****     if(statusL3 & Timer_L3_STATUS_CAPTURE) {
 104              		.loc 1 40 0
 105 005e 16F0400F 		tst	r6, #64
 106 0062 09D0     		beq	.L6
  41:ZumoLibrary/Reflectance.c ****         sensors.l3 = Timer_L3_ReadPeriod() - Timer_L3_ReadCapture();
 107              		.loc 1 41 0
 108 0064 FFF7FEFF 		bl	Timer_L3_ReadPeriod
 109              	.LVL17:
 110 0068 0446     		mov	r4, r0
 111 006a FFF7FEFF 		bl	Timer_L3_ReadCapture
 112              	.LVL18:
 113 006e 201A     		subs	r0, r4, r0
 114 0070 80B2     		uxth	r0, r0
 115 0072 244B     		ldr	r3, .L11
 116 0074 1880     		strh	r0, [r3]	@ movhi
 117 0076 03E0     		b	.L7
 118              	.L6:
  42:ZumoLibrary/Reflectance.c ****     }
  43:ZumoLibrary/Reflectance.c ****     else {
  44:ZumoLibrary/Reflectance.c ****         sensors.l3 = Timer_L3_ReadPeriod();
 119              		.loc 1 44 0
 120 0078 FFF7FEFF 		bl	Timer_L3_ReadPeriod
 121              	.LVL19:
 122 007c 214B     		ldr	r3, .L11
 123 007e 1880     		strh	r0, [r3]	@ movhi
 124              	.L7:
  45:ZumoLibrary/Reflectance.c ****     }
  46:ZumoLibrary/Reflectance.c ****     
  47:ZumoLibrary/Reflectance.c ****     if(statusL1 & Timer_L1_STATUS_CAPTURE) {
ARM GAS  C:\Users\NHANPH~1\AppData\Local\Temp\ccKt5nHW.s 			page 4


 125              		.loc 1 47 0
 126 0080 15F0400F 		tst	r5, #64
 127 0084 09D0     		beq	.L8
  48:ZumoLibrary/Reflectance.c ****         sensors.l1 = Timer_L1_ReadPeriod() - Timer_L1_ReadCapture();
 128              		.loc 1 48 0
 129 0086 FFF7FEFF 		bl	Timer_L1_ReadPeriod
 130              	.LVL20:
 131 008a 0446     		mov	r4, r0
 132 008c FFF7FEFF 		bl	Timer_L1_ReadCapture
 133              	.LVL21:
 134 0090 201A     		subs	r0, r4, r0
 135 0092 80B2     		uxth	r0, r0
 136 0094 1B4B     		ldr	r3, .L11
 137 0096 5880     		strh	r0, [r3, #2]	@ movhi
 138 0098 03E0     		b	.L9
 139              	.L8:
  49:ZumoLibrary/Reflectance.c ****     }
  50:ZumoLibrary/Reflectance.c ****     else {
  51:ZumoLibrary/Reflectance.c ****         sensors.l1 = Timer_L1_ReadPeriod();
 140              		.loc 1 51 0
 141 009a FFF7FEFF 		bl	Timer_L1_ReadPeriod
 142              	.LVL22:
 143 009e 194B     		ldr	r3, .L11
 144 00a0 5880     		strh	r0, [r3, #2]	@ movhi
 145              	.L9:
  52:ZumoLibrary/Reflectance.c ****     }
  53:ZumoLibrary/Reflectance.c ****     
  54:ZumoLibrary/Reflectance.c ****     R1_SetDriveMode(PIN_DM_STRONG);
 146              		.loc 1 54 0
 147 00a2 0C20     		movs	r0, #12
 148 00a4 FFF7FEFF 		bl	R1_SetDriveMode
 149              	.LVL23:
  55:ZumoLibrary/Reflectance.c ****     R1_Write(1);
 150              		.loc 1 55 0
 151 00a8 0120     		movs	r0, #1
 152 00aa FFF7FEFF 		bl	R1_Write
 153              	.LVL24:
  56:ZumoLibrary/Reflectance.c ****     R3_SetDriveMode(PIN_DM_STRONG);
 154              		.loc 1 56 0
 155 00ae 0C20     		movs	r0, #12
 156 00b0 FFF7FEFF 		bl	R3_SetDriveMode
 157              	.LVL25:
  57:ZumoLibrary/Reflectance.c ****     R3_Write(1);
 158              		.loc 1 57 0
 159 00b4 0120     		movs	r0, #1
 160 00b6 FFF7FEFF 		bl	R3_Write
 161              	.LVL26:
  58:ZumoLibrary/Reflectance.c ****     L3_SetDriveMode(PIN_DM_STRONG);
 162              		.loc 1 58 0
 163 00ba 0C20     		movs	r0, #12
 164 00bc FFF7FEFF 		bl	L3_SetDriveMode
 165              	.LVL27:
  59:ZumoLibrary/Reflectance.c ****     L3_Write(1);
 166              		.loc 1 59 0
 167 00c0 0120     		movs	r0, #1
 168 00c2 FFF7FEFF 		bl	L3_Write
 169              	.LVL28:
ARM GAS  C:\Users\NHANPH~1\AppData\Local\Temp\ccKt5nHW.s 			page 5


  60:ZumoLibrary/Reflectance.c ****     L1_SetDriveMode(PIN_DM_STRONG);
 170              		.loc 1 60 0
 171 00c6 0C20     		movs	r0, #12
 172 00c8 FFF7FEFF 		bl	L1_SetDriveMode
 173              	.LVL29:
  61:ZumoLibrary/Reflectance.c ****     L1_Write(1);
 174              		.loc 1 61 0
 175 00cc 0120     		movs	r0, #1
 176 00ce FFF7FEFF 		bl	L1_Write
 177              	.LVL30:
  62:ZumoLibrary/Reflectance.c ****     CyDelayUs(10);
 178              		.loc 1 62 0
 179 00d2 0A20     		movs	r0, #10
 180 00d4 FFF7FEFF 		bl	CyDelayUs
 181              	.LVL31:
  63:ZumoLibrary/Reflectance.c ****     R1_SetDriveMode(PIN_DM_DIG_HIZ);
 182              		.loc 1 63 0
 183 00d8 0220     		movs	r0, #2
 184 00da FFF7FEFF 		bl	R1_SetDriveMode
 185              	.LVL32:
  64:ZumoLibrary/Reflectance.c ****     R3_SetDriveMode(PIN_DM_DIG_HIZ);
 186              		.loc 1 64 0
 187 00de 0220     		movs	r0, #2
 188 00e0 FFF7FEFF 		bl	R3_SetDriveMode
 189              	.LVL33:
  65:ZumoLibrary/Reflectance.c ****     L3_SetDriveMode(PIN_DM_DIG_HIZ);
 190              		.loc 1 65 0
 191 00e4 0220     		movs	r0, #2
 192 00e6 FFF7FEFF 		bl	L3_SetDriveMode
 193              	.LVL34:
  66:ZumoLibrary/Reflectance.c ****     L1_SetDriveMode(PIN_DM_DIG_HIZ);
 194              		.loc 1 66 0
 195 00ea 0220     		movs	r0, #2
 196 00ec FFF7FEFF 		bl	L1_SetDriveMode
 197              	.LVL35:
  67:ZumoLibrary/Reflectance.c **** 
  68:ZumoLibrary/Reflectance.c ****     Timer_R1_ReadStatusRegister();
 198              		.loc 1 68 0
 199 00f0 FFF7FEFF 		bl	Timer_R1_ReadStatusRegister
 200              	.LVL36:
  69:ZumoLibrary/Reflectance.c ****     Timer_R3_ReadStatusRegister();
 201              		.loc 1 69 0
 202 00f4 FFF7FEFF 		bl	Timer_R3_ReadStatusRegister
 203              	.LVL37:
  70:ZumoLibrary/Reflectance.c ****     Timer_L3_ReadStatusRegister();
 204              		.loc 1 70 0
 205 00f8 FFF7FEFF 		bl	Timer_L3_ReadStatusRegister
 206              	.LVL38:
  71:ZumoLibrary/Reflectance.c ****     Timer_L1_ReadStatusRegister();
 207              		.loc 1 71 0
 208 00fc FFF7FEFF 		bl	Timer_L1_ReadStatusRegister
 209              	.LVL39:
 210 0100 F8BD     		pop	{r3, r4, r5, r6, r7, pc}
 211              	.LVL40:
 212              	.L12:
 213 0102 00BF     		.align	2
 214              	.L11:
ARM GAS  C:\Users\NHANPH~1\AppData\Local\Temp\ccKt5nHW.s 			page 6


 215 0104 00000000 		.word	.LANCHOR0
 216              		.cfi_endproc
 217              	.LFE63:
 218              		.size	sensor_isr_handler, .-sensor_isr_handler
 219              		.section	.text.reflectance_start,"ax",%progbits
 220              		.align	2
 221              		.global	reflectance_start
 222              		.thumb
 223              		.thumb_func
 224              		.type	reflectance_start, %function
 225              	reflectance_start:
 226              	.LFB64:
  72:ZumoLibrary/Reflectance.c **** }
  73:ZumoLibrary/Reflectance.c **** 
  74:ZumoLibrary/Reflectance.c **** 
  75:ZumoLibrary/Reflectance.c **** /**
  76:ZumoLibrary/Reflectance.c **** * @brief    Starting Reflectance Sensor
  77:ZumoLibrary/Reflectance.c **** * @details 
  78:ZumoLibrary/Reflectance.c **** */
  79:ZumoLibrary/Reflectance.c **** void reflectance_start()
  80:ZumoLibrary/Reflectance.c **** {
 227              		.loc 1 80 0
 228              		.cfi_startproc
 229              		@ args = 0, pretend = 0, frame = 0
 230              		@ frame_needed = 0, uses_anonymous_args = 0
 231 0000 08B5     		push	{r3, lr}
 232              		.cfi_def_cfa_offset 8
 233              		.cfi_offset 3, -8
 234              		.cfi_offset 14, -4
  81:ZumoLibrary/Reflectance.c ****     sensor_isr_StartEx(sensor_isr_handler);
 235              		.loc 1 81 0
 236 0002 0648     		ldr	r0, .L15
 237 0004 FFF7FEFF 		bl	sensor_isr_StartEx
 238              	.LVL41:
  82:ZumoLibrary/Reflectance.c ****     Timer_R1_Start();
 239              		.loc 1 82 0
 240 0008 FFF7FEFF 		bl	Timer_R1_Start
 241              	.LVL42:
  83:ZumoLibrary/Reflectance.c ****     Timer_R3_Start();
 242              		.loc 1 83 0
 243 000c FFF7FEFF 		bl	Timer_R3_Start
 244              	.LVL43:
  84:ZumoLibrary/Reflectance.c ****     Timer_L3_Start();
 245              		.loc 1 84 0
 246 0010 FFF7FEFF 		bl	Timer_L3_Start
 247              	.LVL44:
  85:ZumoLibrary/Reflectance.c ****     Timer_L1_Start();
 248              		.loc 1 85 0
 249 0014 FFF7FEFF 		bl	Timer_L1_Start
 250              	.LVL45:
 251 0018 08BD     		pop	{r3, pc}
 252              	.L16:
 253 001a 00BF     		.align	2
 254              	.L15:
 255 001c 00000000 		.word	sensor_isr_handler
 256              		.cfi_endproc
 257              	.LFE64:
ARM GAS  C:\Users\NHANPH~1\AppData\Local\Temp\ccKt5nHW.s 			page 7


 258              		.size	reflectance_start, .-reflectance_start
 259              		.section	.text.reflectance_read,"ax",%progbits
 260              		.align	2
 261              		.global	reflectance_read
 262              		.thumb
 263              		.thumb_func
 264              		.type	reflectance_read, %function
 265              	reflectance_read:
 266              	.LFB65:
  86:ZumoLibrary/Reflectance.c **** }
  87:ZumoLibrary/Reflectance.c **** 
  88:ZumoLibrary/Reflectance.c **** 
  89:ZumoLibrary/Reflectance.c **** /**
  90:ZumoLibrary/Reflectance.c **** * @brief    Read reflectance sensor values
  91:ZumoLibrary/Reflectance.c **** * @details
  92:ZumoLibrary/Reflectance.c **** */
  93:ZumoLibrary/Reflectance.c **** void reflectance_read(struct sensors_ *values)
  94:ZumoLibrary/Reflectance.c **** {
 267              		.loc 1 94 0
 268              		.cfi_startproc
 269              		@ args = 0, pretend = 0, frame = 0
 270              		@ frame_needed = 0, uses_anonymous_args = 0
 271              		@ link register save eliminated.
 272              	.LVL46:
 273 0000 0246     		mov	r2, r0
  95:ZumoLibrary/Reflectance.c ****     *values = sensors;
 274              		.loc 1 95 0
 275 0002 024B     		ldr	r3, .L18
 276 0004 03CB     		ldmia	r3!, {r0, r1}
 277              	.LVL47:
 278 0006 1060     		str	r0, [r2]	@ unaligned
 279 0008 5160     		str	r1, [r2, #4]	@ unaligned
 280 000a 7047     		bx	lr
 281              	.L19:
 282              		.align	2
 283              	.L18:
 284 000c 00000000 		.word	.LANCHOR0
 285              		.cfi_endproc
 286              	.LFE65:
 287              		.size	reflectance_read, .-reflectance_read
 288              		.section	.text.reflectance_digital,"ax",%progbits
 289              		.align	2
 290              		.global	reflectance_digital
 291              		.thumb
 292              		.thumb_func
 293              		.type	reflectance_digital, %function
 294              	reflectance_digital:
 295              	.LFB66:
  96:ZumoLibrary/Reflectance.c **** }
  97:ZumoLibrary/Reflectance.c **** 
  98:ZumoLibrary/Reflectance.c **** 
  99:ZumoLibrary/Reflectance.c **** /**
 100:ZumoLibrary/Reflectance.c **** * @brief    Making Reflectance Sensor's period to digital
 101:ZumoLibrary/Reflectance.c **** * @details
 102:ZumoLibrary/Reflectance.c **** */
 103:ZumoLibrary/Reflectance.c **** void reflectance_digital(struct sensors_ *digital)
 104:ZumoLibrary/Reflectance.c **** {
ARM GAS  C:\Users\NHANPH~1\AppData\Local\Temp\ccKt5nHW.s 			page 8


 296              		.loc 1 104 0
 297              		.cfi_startproc
 298              		@ args = 0, pretend = 0, frame = 0
 299              		@ frame_needed = 0, uses_anonymous_args = 0
 300              		@ link register save eliminated.
 301              	.LVL48:
 105:ZumoLibrary/Reflectance.c ****     //if the results of reflectance_period function is over threshold, set digital_sensor_value to 
 106:ZumoLibrary/Reflectance.c ****     if(sensors.l3 > threshold.l3)
 302              		.loc 1 106 0
 303 0000 184B     		ldr	r3, .L29
 304 0002 1B88     		ldrh	r3, [r3]
 305 0004 9BB2     		uxth	r3, r3
 306 0006 184A     		ldr	r2, .L29+4
 307 0008 1288     		ldrh	r2, [r2]
 308 000a 9342     		cmp	r3, r2
 309 000c 02D9     		bls	.L21
 107:ZumoLibrary/Reflectance.c ****         digital->l3 = 0;
 310              		.loc 1 107 0
 311 000e 0023     		movs	r3, #0
 312 0010 0380     		strh	r3, [r0]	@ movhi
 313 0012 01E0     		b	.L22
 314              	.L21:
 108:ZumoLibrary/Reflectance.c ****     else
 109:ZumoLibrary/Reflectance.c ****         digital->l3 = 1;
 315              		.loc 1 109 0
 316 0014 0123     		movs	r3, #1
 317 0016 0380     		strh	r3, [r0]	@ movhi
 318              	.L22:
 110:ZumoLibrary/Reflectance.c ****     
 111:ZumoLibrary/Reflectance.c ****     if(sensors.l1 > threshold.l1)
 319              		.loc 1 111 0
 320 0018 124B     		ldr	r3, .L29
 321 001a 5B88     		ldrh	r3, [r3, #2]
 322 001c 9BB2     		uxth	r3, r3
 323 001e 124A     		ldr	r2, .L29+4
 324 0020 5288     		ldrh	r2, [r2, #2]
 325 0022 9342     		cmp	r3, r2
 326 0024 02D9     		bls	.L23
 112:ZumoLibrary/Reflectance.c ****         digital->l1 = 0;
 327              		.loc 1 112 0
 328 0026 0023     		movs	r3, #0
 329 0028 4380     		strh	r3, [r0, #2]	@ movhi
 330 002a 01E0     		b	.L24
 331              	.L23:
 113:ZumoLibrary/Reflectance.c ****     else
 114:ZumoLibrary/Reflectance.c ****         digital->l1 = 1;
 332              		.loc 1 114 0
 333 002c 0123     		movs	r3, #1
 334 002e 4380     		strh	r3, [r0, #2]	@ movhi
 335              	.L24:
 115:ZumoLibrary/Reflectance.c ****     
 116:ZumoLibrary/Reflectance.c ****     if(sensors.r1 > threshold.r1)
 336              		.loc 1 116 0
 337 0030 0C4B     		ldr	r3, .L29
 338 0032 9B88     		ldrh	r3, [r3, #4]
 339 0034 9BB2     		uxth	r3, r3
 340 0036 0C4A     		ldr	r2, .L29+4
ARM GAS  C:\Users\NHANPH~1\AppData\Local\Temp\ccKt5nHW.s 			page 9


 341 0038 9288     		ldrh	r2, [r2, #4]
 342 003a 9342     		cmp	r3, r2
 343 003c 02D9     		bls	.L25
 117:ZumoLibrary/Reflectance.c ****         digital->r1 = 0;
 344              		.loc 1 117 0
 345 003e 0023     		movs	r3, #0
 346 0040 8380     		strh	r3, [r0, #4]	@ movhi
 347 0042 01E0     		b	.L26
 348              	.L25:
 118:ZumoLibrary/Reflectance.c ****     else
 119:ZumoLibrary/Reflectance.c ****         digital->r1 = 1;
 349              		.loc 1 119 0
 350 0044 0123     		movs	r3, #1
 351 0046 8380     		strh	r3, [r0, #4]	@ movhi
 352              	.L26:
 120:ZumoLibrary/Reflectance.c ****     
 121:ZumoLibrary/Reflectance.c ****     if(sensors.r3 > threshold.r3)
 353              		.loc 1 121 0
 354 0048 064B     		ldr	r3, .L29
 355 004a DB88     		ldrh	r3, [r3, #6]
 356 004c 9BB2     		uxth	r3, r3
 357 004e 064A     		ldr	r2, .L29+4
 358 0050 D288     		ldrh	r2, [r2, #6]
 359 0052 9342     		cmp	r3, r2
 360 0054 02D9     		bls	.L27
 122:ZumoLibrary/Reflectance.c ****         digital->r3 = 0;
 361              		.loc 1 122 0
 362 0056 0023     		movs	r3, #0
 363 0058 C380     		strh	r3, [r0, #6]	@ movhi
 364 005a 7047     		bx	lr
 365              	.L27:
 123:ZumoLibrary/Reflectance.c ****     else
 124:ZumoLibrary/Reflectance.c ****         digital->r3 = 1;
 366              		.loc 1 124 0
 367 005c 0123     		movs	r3, #1
 368 005e C380     		strh	r3, [r0, #6]	@ movhi
 369 0060 7047     		bx	lr
 370              	.L30:
 371 0062 00BF     		.align	2
 372              	.L29:
 373 0064 00000000 		.word	.LANCHOR0
 374 0068 00000000 		.word	.LANCHOR1
 375              		.cfi_endproc
 376              	.LFE66:
 377              		.size	reflectance_digital, .-reflectance_digital
 378              		.section	.text.reflectance_set_threshold,"ax",%progbits
 379              		.align	2
 380              		.global	reflectance_set_threshold
 381              		.thumb
 382              		.thumb_func
 383              		.type	reflectance_set_threshold, %function
 384              	reflectance_set_threshold:
 385              	.LFB67:
 125:ZumoLibrary/Reflectance.c ****         
 126:ZumoLibrary/Reflectance.c **** }
 127:ZumoLibrary/Reflectance.c **** 
 128:ZumoLibrary/Reflectance.c **** void reflectance_set_threshold(uint16_t l3, uint16_t l1, uint16_t r1, uint16_t r3)
ARM GAS  C:\Users\NHANPH~1\AppData\Local\Temp\ccKt5nHW.s 			page 10


 129:ZumoLibrary/Reflectance.c **** {
 386              		.loc 1 129 0
 387              		.cfi_startproc
 388              		@ args = 0, pretend = 0, frame = 0
 389              		@ frame_needed = 0, uses_anonymous_args = 0
 390              		@ link register save eliminated.
 391              	.LVL49:
 392 0000 10B4     		push	{r4}
 393              		.cfi_def_cfa_offset 4
 394              		.cfi_offset 4, -4
 130:ZumoLibrary/Reflectance.c ****     threshold.l3 = l3;
 395              		.loc 1 130 0
 396 0002 044C     		ldr	r4, .L33
 397 0004 2080     		strh	r0, [r4]	@ movhi
 131:ZumoLibrary/Reflectance.c ****     threshold.l1 = l1;
 398              		.loc 1 131 0
 399 0006 6180     		strh	r1, [r4, #2]	@ movhi
 132:ZumoLibrary/Reflectance.c ****     threshold.r3 = r3;
 400              		.loc 1 132 0
 401 0008 E380     		strh	r3, [r4, #6]	@ movhi
 133:ZumoLibrary/Reflectance.c ****     threshold.r1 = r1;
 402              		.loc 1 133 0
 403 000a A280     		strh	r2, [r4, #4]	@ movhi
 134:ZumoLibrary/Reflectance.c **** }
 404              		.loc 1 134 0
 405 000c 5DF8044B 		ldr	r4, [sp], #4
 406              		.cfi_restore 4
 407              		.cfi_def_cfa_offset 0
 408 0010 7047     		bx	lr
 409              	.L34:
 410 0012 00BF     		.align	2
 411              	.L33:
 412 0014 00000000 		.word	.LANCHOR1
 413              		.cfi_endproc
 414              	.LFE67:
 415              		.size	reflectance_set_threshold, .-reflectance_set_threshold
 416              		.data
 417              		.align	2
 418              		.set	.LANCHOR1,. + 0
 419              		.type	threshold, %object
 420              		.size	threshold, 8
 421              	threshold:
 422 0000 1027     		.short	10000
 423 0002 1027     		.short	10000
 424 0004 1027     		.short	10000
 425 0006 1027     		.short	10000
 426              		.bss
 427              		.align	2
 428              		.set	.LANCHOR0,. + 0
 429              		.type	sensors, %object
 430              		.size	sensors, 8
 431              	sensors:
 432 0000 00000000 		.space	8
 432      00000000 
 433              		.type	digital_sensor_value, %object
 434              		.size	digital_sensor_value, 8
 435              	digital_sensor_value:
ARM GAS  C:\Users\NHANPH~1\AppData\Local\Temp\ccKt5nHW.s 			page 11


 436 0008 00000000 		.space	8
 436      00000000 
 437              		.text
 438              	.Letext0:
 439              		.file 2 "c:\\program files (x86)\\cypress\\psoc creator\\4.0\\psoc creator\\import\\gnu\\arm\\4.9.
 440              		.file 3 "c:\\program files (x86)\\cypress\\psoc creator\\4.0\\psoc creator\\import\\gnu\\arm\\4.9.
 441              		.file 4 "Generated_Source\\PSoC5/cytypes.h"
 442              		.file 5 "ZumoLibrary\\Reflectance.h"
 443              		.file 6 "Generated_Source\\PSoC5/Timer_R1.h"
 444              		.file 7 "Generated_Source\\PSoC5/Timer_R3.h"
 445              		.file 8 "Generated_Source\\PSoC5/Timer_L3.h"
 446              		.file 9 "Generated_Source\\PSoC5/Timer_L1.h"
 447              		.file 10 "Generated_Source\\PSoC5/R1.h"
 448              		.file 11 "Generated_Source\\PSoC5/R3.h"
 449              		.file 12 "Generated_Source\\PSoC5/L3.h"
 450              		.file 13 "Generated_Source\\PSoC5/L1.h"
 451              		.file 14 "Generated_Source\\PSoC5/CyLib.h"
 452              		.file 15 "Generated_Source\\PSoC5/sensor_isr.h"
 453              		.file 16 "Generated_Source\\PSoC5/core_cm3.h"